(dp0
S'Peterson MN'
p1
(lp2
F-91.8348561
aF43.7862132
asS'Columbia Heights MN'
p3
(lp4
F-93.2517801
aF45.0460458
asS'Monroe WI'
p5
(lp6
F-89.6392395
aF42.6018298
asS'St. Cloud MN'
p7
(lp8
F-94.1642003
aF45.5616075
asS'Santa Clara CA'
p9
(lp10
F-121.9551743
aF37.3541132
asS'Rome OH'
p11
(lp12
F-80.865366
aF41.6047773
asS'Rowland NC'
p13
(lp14
F-79.2914305
aF34.5365518
asS'Draper UT'
p15
(lp16
F-111.8638225
aF40.5246711
asS'Sheridan AR'
p17
(lp18
F-92.4012653
aF34.3070406
asS'Sierra Vista AZ'
p19
(lp20
F-110.3036928
aF31.5545401
asS'Bellingham WA'
p21
(lp22
F-122.4788601
aF48.754402
asS'Little Mountain SC'
p23
(lp24
F-81.4123228
aF34.1962557
asS'Geneva WI'
p25
(lp26
F-88.43343
aF42.5916836
asS'Happy Valley CA'
p27
(lp28
F-120.5632595
aF38.6818492
asS'England AR'
p29
(lp30
F-91.9690284
aF34.5442609
asS'Strong AR'
p31
(lp32
F-92.3348639
aF33.1076282
asS'Bossier City LA'
p33
(lp34
F-93.6511868730111
aF32.505893
asS'Boyle Heights CA'
p35
(lp36
F-118.2048647
aF34.0331656
asS'Ragley LA'
p37
(lp38
F-93.2323812
aF30.512699
asS'Levelland TX'
p39
(lp40
F-102.3779599
aF33.5873164
asS'Columbia MO'
p41
(lp42
F-92.3337365
aF38.951883
asS'East Stroudsburg PA'
p43
(lp44
F-75.1812909
aF40.999539
asS'Canton NC'
p45
(lp46
F-82.8373557
aF35.5328838
asS'Mission TX'
p47
(lp48
F-98.3252931
aF26.2159066
asS'Brookshire TX'
p49
(lp50
F-95.951066
aF29.7860643
asS'Fulshear TX'
p51
(lp52
F-95.899626
aF29.690292
asS'Kiowa OK'
p53
(lp54
F-95.8991585
aF34.7206516
asS'Oxnard CA'
p55
(lp56
F-119.1803817
aF34.1976308
asS'Jasper OH'
p57
(lp58
F-83.0565678
aF39.05007
asS'Rosser TX'
p59
(lp60
F-96.4533192
aF32.4626397
asS'New Iberia LA'
p61
(lp62
F-91.8187284
aF30.0035365
asS'Hensley WV'
p63
(lp64
F-81.6998326
aF37.4740011
asS'River Forest IL'
p65
(lp66
F-87.8139482
aF41.8978091
asS'Groveton TX'
p67
(lp68
F-95.125769
aF31.0549071
asS'Kingman AZ'
p69
(lp70
F-114.0530064
aF35.189443
asS'Kansas City KS'
p71
(lp72
F-94.7495245
aF39.1146799
asS'New Paltz NY'
p73
(lp74
F-74.0844893
aF41.7464972
asS'Hutchins TX'
p75
(lp76
F-96.713052
aF32.6493
asS'Shelby NC'
p77
(lp78
F-81.5356462
aF35.2923513
asS'Hutchinson MN'
p79
(lp80
F-94.3697056
aF44.8877401
asS'West Linn OR'
p81
(lp82
F-122.612314
aF45.3656761
asS'Coalinga CA'
p83
(lp84
F-120.245066459447
aF36.1299627
asS'Pico Rivera CA'
p85
(lp86
F-118.0967349
aF33.9830688
asS'Scott County VA'
p87
(lp88
F-80.4281761179866
aF37.24166655
asS'Fair Oaks CA'
p89
(lp90
F-123.3413983
aF39.3784978
asS'Charlotte NC'
p91
(lp92
F-80.8431267
aF35.2270869
asS'Fond du Lac WI'
p93
(lp94
F-88.4458032
aF43.7748763
asS'Modesto CA'
p95
(lp96
F-120.9968781
aF37.6390972
asS'Eagan MN'
p97
(lp98
F-93.1659178
aF44.818173
asS'Tiverton RI'
p99
(lp100
F-71.1981499562836
aF41.6463675
asS'Pleasant Hill NC'
p101
(lp102
F-79.4816875
aF35.873471
asS'Lockhart TX'
p103
(lp104
F-97.6699995
aF29.8849441
asS'Hays KS'
p105
(lp106
F-99.3267701
aF38.8791783
asS'Maysville MO'
p107
(lp108
F-94.3618966
aF39.8891658
asS'Austin TX'
p109
(lp110
F-97.7436994
aF30.2711286
asS'Putnam Hall FL'
p111
(lp112
F-81.9592634
aF29.7366333
asS'Mobile AL'
p113
(lp114
F-88.043054
aF30.6943566
asS'Oklahoma City OK'
p115
(lp116
F-97.5170535
aF35.4729886
asS'Perry Township OH'
p117
(lp118
F-82.2360792338813
aF40.13264655
asS'Brockton MA'
p119
(lp120
F-71.0183786
aF42.0834335
asS'Sunnyvale CA'
p121
(lp122
F-122.0363495
aF37.3688301
asS'Panhandle TX'
p123
(lp124
F-101.3804081
aF35.3454847
asS'Randallstown MD'
p125
(lp126
F-76.7954544
aF39.3676844
asS'Greenville NC'
p127
(lp128
F-77.3663537
aF35.612661
asS'Braintree MA'
p129
(lp130
F-70.9994919
aF42.2223218
asS'Rockville GA'
p131
(lp132
F-83.2187676
aF33.3276362
asS'Downey CA'
p133
(lp134
F-118.1325687
aF33.9400143
asS'Washington DC'
p135
(lp136
F-77.0366455
aF38.8949549
asS'Belleville MI'
p137
(lp138
F-89.9839934
aF38.5200504
asS'Humboldt TN'
p139
(lp140
F-88.9158952
aF35.8197917
asS'Trenton NJ'
p141
(lp142
F-74.7429459
aF40.217058
asS'Wellman IA'
p143
(lp144
F-91.8378536
aF41.4650649
asS'San Marcos CA'
p145
(lp146
F-117.1661448
aF33.1433723
asS'Pelzer SC'
p147
(lp148
F-82.4559597
aF34.6423372
asS'Hattiesburg MS'
p149
(lp150
F-89.2903391
aF31.3271189
asS'Livingston MT'
p151
(lp152
F-110.529259943486
aF45.671445
asS'Beaumont CA'
p153
(lp154
F-116.9772479
aF33.9294606
asS'Rosemead CA'
p155
(lp156
F-118.0879762
aF34.0676169
asS'Palm Harbor FL'
p157
(lp158
F-82.7637126
aF28.0780718
asS'Pleasanton CA'
p159
(lp160
F-121.8746788
aF37.6624312
asS'DeSoto TX'
p161
(lp162
F-96.8656574351241
aF32.6060145
asS'Baton Rouge LA'
p163
(lp164
F-91.1545509
aF30.4507462
asS'Woodford VA'
p165
(lp166
F-77.4088707
aF38.1131886
asS'Lucedale MS'
p167
(lp168
F-88.5900234
aF30.9251869
asS'Old Saybrook CT'
p169
(lp170
F-72.3761955
aF41.2917652
asS'Dinuba CA'
p171
(lp172
F-119.3870655
aF36.5432837
asS'Huntingdon County PA'
p173
(lp174
F-78.0102812
aF40.4847959
asS'Lawrenceburg KY'
p175
(lp176
F-84.896617
aF38.0372967
asS'Aldie VA'
p177
(lp178
F-77.6428402
aF38.9758064
asS'Greeley CO'
p179
(lp180
F-104.7091321
aF40.4233142
asS'Kent OH'
p181
(lp182
F-81.3578859
aF41.1536674
asS'Lawton OK'
p183
(lp184
F-98.3903304
aF34.6086854
asS'Tarboro NC'
p185
(lp186
F-77.5358048
aF35.8968236
asS'Terrell TX'
p187
(lp188
F-96.2752568
aF32.7359626
asS'Gray TN'
p189
(lp190
F-82.4765351
aF36.4198258
asS'McMinnville OR'
p191
(lp192
F-123.197585
aF45.2109843
asS'Fountain CO'
p193
(lp194
F-104.663152246922
aF38.580063
asS'Trinidad CO'
p195
(lp196
F-104.500541
aF37.169397
asS'Wilkesboro NC'
p197
(lp198
F-81.16064
aF36.145965
asS'Cape Girardeau MO'
p199
(lp200
F-89.5181475
aF37.3058839
asS'Twinsburg OH'
p201
(lp202
F-81.4401128
aF41.3125552
asS'Reno TX'
p203
(lp204
F-95.4624547
aF33.6631622
asS'Waldoboro ME'
p205
(lp206
F-69.3759159
aF44.095476
asS'Napa CA'
p207
(lp208
F-122.2855292
aF38.2971367
asS'Richmond Heights OH'
p209
(lp210
F-81.5101209
aF41.552829
asS'Florence AZ'
p211
(lp212
F-111.387343
aF33.0314508
asS'Fresno CA'
p213
(lp214
F-119.7848306
aF36.7394421
asS'Peterborough NH'
p215
(lp216
F-71.9517458
aF42.8706392
asS'Grand Junction CO'
p217
(lp218
F-108.5507316
aF39.063956
asS'St. Petersburg FL'
p219
(lp220
F-82.6695084
aF27.7703796
asS'Phelps KY'
p221
(lp222
F-82.150133
aF37.5128846
asS'Marana AZ'
p223
(lp224
F-111.215709
aF32.4446988
asS'Villa Park IL'
p225
(lp226
F-87.9774853
aF41.8891319
asS'Gifford FL'
p227
(lp228
F-80.409218
aF27.6753089
asS'Lake Jackson TX'
p229
(lp230
F-95.4343858
aF29.0338575
asS'Palo Alto CA'
p231
(lp232
F-122.1634471
aF37.442156
asS'Sheboygan WI'
p233
(lp234
F-87.7145299
aF43.7508284
asS'Plymouth MN'
p235
(lp236
F-93.4665099
aF45.0065149
asS'Yuba City CA'
p237
(lp238
F-121.6169107
aF39.1404477
asS'Ashtabula OH'
p239
(lp240
F-80.7898089
aF41.865054
asS'Monon IN'
p241
(lp242
F-86.8789043
aF40.8678171
asS'Wake Forest NC'
p243
(lp244
F-78.5103426
aF35.9803097
asS'Lakeshire MO'
p245
(lp246
F-90.3351163
aF38.538664
asS'Jackson GA'
p247
(lp248
F-83.9660208
aF33.2945651
asS'Keaau HI'
p249
(lp250
F-155.0397489
aF19.621245
asS'Columbia Township MI'
p251
(lp252
F-84.4088270075892
aF39.171265
asS'Zion IL'
p253
(lp254
F-87.8328504
aF42.4461322
asS'Romulus MI'
p255
(lp256
F-83.3965994
aF42.2222614
asS'Edmonton KY'
p257
(lp258
F-85.6121905
aF36.9800563
asS'South Los Angeles CA'
p259
(lp260
F-118.2781287
aF33.9275152
asS'Sumas WA'
p261
(lp262
F-122.2655258
aF48.9972794
asS'Fort Madison IA'
p263
(lp264
F-91.3151907
aF40.6299403
asS'Greenville MS'
p265
(lp266
F-91.0551311
aF33.4000633
asS'Dallas OR'
p267
(lp268
F-123.3158694
aF44.9189206
asS'Franklin LA'
p269
(lp270
F174.648018039933
aF-37.1034163
asS'Metairie LA'
p271
(lp272
F-90.1767148159888
aF30.001852
asS'Rancho Santa Margarita CA'
p273
(lp274
F-117.602934
aF33.6408845
asS'Webster TX'
p275
(lp276
F-95.1182644
aF29.5377315
asS'Union City CA'
p277
(lp278
F-122.0816296
aF37.5963232
asS'Sullivan MO'
p279
(lp280
F-91.1604206
aF38.2081045
asS'Ripon CA'
p281
(lp282
F-121.1243827
aF37.741595
asS'Westerville OH'
p283
(lp284
F-82.9290695
aF40.1261743
asS'Farmington AR'
p285
(lp286
F-94.2471514
aF36.0420248
asS'Middle River MD'
p287
(lp288
F-76.4394056
aF39.3342745
asS'Aguanga CA'
p289
(lp290
F-116.8650234
aF33.4428094
asS'Gunlock KY'
p291
(lp292
F-82.9259978
aF37.547597
asS'Show Low AZ'
p293
(lp294
F-110.0298326
aF34.2542084
asS'Little Rock AR'
p295
(lp296
F-92.2895947
aF34.7464809
asS'Ellis County TX'
p297
(lp298
F-98.3052928
aF26.2542388
asS'Orange County FL'
p299
(lp300
F-81.7064839
aF30.1660736
asS'Sand City CA'
p301
(lp302
F-121.8482854
aF36.6171819
asS'Los Lunas NM'
p303
(lp304
F-106.7613066
aF34.8142093
asS'Kellyville OK'
p305
(lp306
F-96.2136135
aF35.9436968
asS'Grass Valley CA'
p307
(lp308
F-121.053122977412
aF39.2086655
asS'Roswell NM'
p309
(lp310
F-104.5229517
aF33.3943282
asS'Hohenwald TN'
p311
(lp312
F-87.5519628
aF35.5478514
asS'Okmulgee County OK'
p313
(lp314
F-95.9603409
aF35.6234738
asS'Nacogdoches TX'
p315
(lp316
F-94.6554873
aF31.6035129
asS'Gainesville GA'
p317
(lp318
F-83.8240662
aF34.2978794
asS'Arlington TX'
p319
(lp320
F-97.1400558642286
aF32.701939
asS'Santa Fe NM'
p321
(lp322
F-105.9377996
aF35.6869996
asS'Thurston County WA'
p323
(lp324
F-122.755939448476
aF47.0664407
asS'Moreno Valley CA'
p325
(lp326
F-117.2305943
aF33.937517
asS'Arlington TN'
p327
(lp328
F-89.6617312
aF35.2964487
asS'Barstow CA'
p329
(lp330
F-117.0174409
aF34.896069
asS'Fairbanks AK'
p331
(lp332
F-147.7166749
aF64.837845
asS'London KY'
p333
(lp334
F-84.0832645
aF37.1289771
asS'Oakland Park FL'
p335
(lp336
F-80.1372004954837
aF26.1801443
asS'Jal NM'
p337
(lp338
F-103.1935126
aF32.1131814
asS'Booneville KY'
p339
(lp340
F-83.6749144
aF37.4761991
asS'Valdosta GA'
p341
(lp342
F-83.278485
aF30.8327022
asS'Stone Mountain GA'
p343
(lp344
F-84.1706272
aF33.8080924
asS'Tallahassee FL'
p345
(lp346
F-84.2809331
aF30.4380832
asS'Benton Harbor MI'
p347
(lp348
F-86.4541893
aF42.1167065
asS'Colby KS'
p349
(lp350
F-101.0523769
aF39.395837
asS'Union Grove NC'
p351
(lp352
F-76.6091016
aF35.6651645
asS'New Castle DE'
p353
(lp354
F-75.5663131
aF39.6620572
asS'Euclid OH'
p355
(lp356
F-81.5267872
aF41.5931049
asS'Santa Cruz CA'
p357
(lp358
F-122.0260569
aF36.9735903
asS'Fairmont WV'
p359
(lp360
F-80.142578
aF39.4850848
asS'Opelika AL'
p361
(lp362
F-85.4559851417601
aF32.652151
asS'Winslow AZ'
p363
(lp364
F-110.6973571
aF35.0241874
asS'Mount Washington PA'
p365
(lp366
F-80.0090141058417
aF40.4264349
asS'Saginaw TX'
p367
(lp368
F-97.3639067
aF32.8601275
asS'St. Martin MS'
p369
(lp370
F-88.8680852
aF30.4379758
asS'Ventnor NJ'
p371
(lp372
F-74.4773919
aF39.340505
asS'Auburn WA'
p373
(lp374
F-122.2301807
aF47.3075369
asS'Gretna LA'
p375
(lp376
F-79.360234
aF36.9528412
asS'Sneads FL'
p377
(lp378
F-84.9243662
aF30.707692
asS'Crowley LA'
p379
(lp380
F-123.4255664
aF39.4090532
asS'Deltona FL'
p381
(lp382
F-81.2636737
aF28.9005446
asS'Spokane WA'
p383
(lp384
F-117.4247133
aF47.6588603
asS'Colorado Springs CO'
p385
(lp386
F-104.8253484
aF38.8339578
asS'Lumberton NC'
p387
(lp388
F-79.0083992
aF34.6183433
asS'Wasco CA'
p389
(lp390
F-119.3409456
aF35.5941238
asS'Sioux City IA'
p391
(lp392
F-96.4058781
aF42.4966815
asS'Euless TX'
p393
(lp394
F-97.0667361924056
aF32.8465405
asS'Urbandale IA'
p395
(lp396
F-93.7380623
aF41.6274552
asS'Aragonite UT'
p397
(lp398
F-113.0015694
aF40.7425261
asS'Corpus Christi TX'
p399
(lp400
F-97.3955743
aF27.8002542
asS'Navarre FL'
p401
(lp402
F-86.870082
aF30.4019789
asS'Muncie IN'
p403
(lp404
F-85.3865113
aF40.1936683
asS'Tupelo MS'
p405
(lp406
F-88.7033858
aF34.2576067
asS'Bismarck ND'
p407
(lp408
F-100.7837391
aF46.8083268
asS'Camden NJ'
p409
(lp410
F-75.119891
aF39.9448402
asS'Harvey LA'
p411
(lp412
F-87.6467131
aF41.6100344
asS'Nashville TN'
p413
(lp414
F-86.774353
aF36.1622296
asS'Dayton OH'
p415
(lp416
F-84.1916068
aF39.7589478
asS'Montclair CA'
p417
(lp418
F-117.6897775
aF34.0775104
asS'Pulaski VA'
p419
(lp420
F-80.7797934
aF37.0478983
asS'South Gate CA'
p421
(lp422
F-118.2009809
aF33.9463456
asS'Talking Rock GA'
p423
(lp424
F-84.5049278
aF34.5092563
asS'Wapato WA'
p425
(lp426
F-120.4203381
aF46.4476278
asS'Maywood CA'
p427
(lp428
F-118.1853489
aF33.9866807
asS'Homestead FL'
p429
(lp430
F-80.4775568
aF25.4687224
asS'Sierra Blanca TX'
p431
(lp432
F-105.3571763
aF31.1745732
asS'Jackson TN'
p433
(lp434
F-88.8177417
aF35.6144446
asS'Miami OK'
p435
(lp436
F-94.8773739
aF36.8746177
asS'Orange CA'
p437
(lp438
F-117.8503087
aF33.7872568
asS'Elkridge MD'
p439
(lp440
F-76.7137154
aF39.2128338
asS'Elk Grove CA'
p441
(lp442
F-121.3716177
aF38.4087993
asS'Buckeye AZ'
p443
(lp444
F-112.5838672
aF33.3702748
asS'Harmony IN'
p445
(lp446
F-87.0723527
aF39.5364433
asS'Gallup NM'
p447
(lp448
F-108.7439488
aF35.5283573
asS'Tacoma WA'
p449
(lp450
F-122.4398745
aF47.2495798
asS'Midlothian TX'
p451
(lp452
F-96.9944488
aF32.482361
asS'Evans CO'
p453
(lp454
F-104.6921873
aF40.3763701
asS'Boerne TX'
p455
(lp456
F-98.7319702
aF29.7946641
asS'Vancouver WA'
p457
(lp458
F-122.6744556
aF45.6306954
asS'Naples FL'
p459
(lp460
F-81.7948102
aF26.1420358
asS'Carlsbad NM'
p461
(lp462
F-104.2287756
aF32.4207262
asS'Pryor OK'
p463
(lp464
F-95.3169135
aF36.3084275
asS'Visalia CA'
p465
(lp466
F-119.2920584
aF36.3302284
asS"Lee's Summit MO"
p467
(lp468
F-94.3821723
aF38.9108408
asS'Brooksville AL'
p469
(lp470
F-86.8550032
aF34.5009267
asS'Gainesville FL'
p471
(lp472
F-82.324996
aF29.6519396
asS'Anderson CA'
p473
(lp474
F-122.2977814
aF40.448208
asS'Muskogee OK'
p475
(lp476
F-95.3696908
aF35.7478769
asS'Tewksbury MA'
p477
(lp478
F-71.2342247
aF42.6106479
asS'Cato Township MI'
p479
(lp480
F-93.6801941
aF36.7208965
asS'Willoughby OH'
p481
(lp482
F-81.406501
aF41.6397696
asS'El Cajon CA'
p483
(lp484
F-116.9625268
aF32.7947731
asS'Maui HI'
p485
(lp486
F-156.442868105986
aF20.7076935
asS'Newport Beach CA'
p487
(lp488
F-117.92944
aF33.6170092
asS'Tukwila WA'
p489
(lp490
F-122.2559155
aF47.4627356
asS'Colebrook Township OH'
p491
(lp492
F-80.762583
aF41.5356109
asS'Meridianville AL'
p493
(lp494
F-86.5722153
aF34.8514782
asS'Coal County OK'
p495
(lp496
F-96.2186091
aF34.5381481
asS'Sevierville TN'
p497
(lp498
F-83.5618349
aF35.8681455
asS'White Plains KY'
p499
(lp500
F-87.3836094
aF37.183655
asS'San Angelo TX'
p501
(lp502
F-100.4398441
aF31.4648357
asS'Colton CA'
p503
(lp504
F-117.3136546
aF34.0739016
asS'Wilmington DE'
p505
(lp506
F-75.5465889
aF39.745947
asS'Dallas NC'
p507
(lp508
F-81.1764864
aF35.3160401
asS'Rancho Cordova CA'
p509
(lp510
F-121.3027279
aF38.5890723
asS'West Springfield MA'
p511
(lp512
F-72.6203674
aF42.1070383
asS'Brevard NC'
p513
(lp514
F-82.7342918
aF35.2334472
asS'Clovis CA'
p515
(lp516
F-119.7029193
aF36.8252277
asS'Santa Paula CA'
p517
(lp518
F-119.0592704
aF34.3541659
asS'Stewartstown PA'
p519
(lp520
F-76.591357
aF39.7537146
asS'Benton IL'
p521
(lp522
F-88.9200684
aF37.9967163
asS'Harrisburg PA'
p523
(lp524
F-76.8861121
aF40.2663107
asS'Ashville AL'
p525
(lp526
F-86.2549798
aF33.8369216
asS'Kuna ID'
p527
(lp528
F-116.4201222
aF43.4918307
asS'Onalaska TX'
p529
(lp530
F-95.116326
aF30.805746
asS'Grafton WV'
p531
(lp532
F-80.0189658
aF39.3409249
asS'Cedar Rapids IA'
p533
(lp534
F-91.6704052
aF41.9758872
asS'San Diego CA'
p535
(lp536
F-117.1627713
aF32.7174209
asS'Chesterfield County SC'
p537
(lp538
F-80.7639957
aF32.4015833
asS'Pacific Beach CA'
p539
(lp540
F-117.2403182
aF32.7978268
asS'Cedartown GA'
p541
(lp542
F-85.2559397
aF34.0124425
asS'Dublin NC'
p543
(lp544
F-78.7264069
aF34.6568361
asS'Little Egg Harbor NJ'
p545
(lp546
F-74.3669679
aF39.6452742
asS'Laramie WY'
p547
(lp548
F-105.5911006
aF41.3113669
asS'Ft. Lauderdale FL'
p549
(lp550
F-80.1433785
aF26.1223084
asS'Lancaster SC'
p551
(lp552
F-80.7709014
aF34.7204257
asS'Arlington GA'
p553
(lp554
F-84.7249187
aF31.4398976
asS'Little Havana FL'
p555
(lp556
F-80.2334685
aF25.7681503
asS'Englewood OH'
p557
(lp558
F-84.3021672
aF39.8775553
asS'Arcola IL'
p559
(lp560
F-88.3064366
aF39.684755
asS'Ocala FL'
p561
(lp562
F-82.1400922
aF29.1871986
asS'Irmo SC'
p563
(lp564
F-81.1824899
aF34.085736
asS'Iredell County NC'
p565
(lp566
F-78.5911233
aF33.9332275
asS'Barrow County GA'
p567
(lp568
F-83.7443385
aF33.9917761
asS'Smartsville CA'
p569
(lp570
F-121.29857
aF39.2073932
asS'Petroleum WV'
p571
(lp572
F-81.2684484
aF39.1909105
asS'Eufaula OK'
p573
(lp574
F-95.5824845
aF35.2873206
asS'McKinney TX'
p575
(lp576
F-96.615447
aF33.1976496
asS'Oak Cliff TX'
p577
(lp578
F-96.8111125
aF32.7392973
asS'Maurice River NJ'
p579
(lp580
F-75.0287887
aF39.231781
asS'East Wenatchee WA'
p581
(lp582
F-120.2931262
aF47.4156824
asS'Washington Park IL'
p583
(lp584
F-90.0928851
aF38.6350501
asS'Evansville IN'
p585
(lp586
F-87.5558482
aF37.9747645
asS'Buckhannon WV'
p587
(lp588
F-80.2322697
aF38.9939426
asS'Portland OR'
p589
(lp590
F-122.6741948
aF45.5202471
asS'Anchorage AK'
p591
(lp592
F-149.8948522
aF61.2163129
asS'Midland TX'
p593
(lp594
F-102.0779481
aF31.9973662
asS'Yonkers NY'
p595
(lp596
F-73.8987468
aF40.9312099
asS'Florence CA'
p597
(lp598
F-118.2659105
aF33.9752173
asS'Clinton IL'
p599
(lp600
F-88.9645252
aF40.1536479
asS'Gulfport MS'
p601
(lp602
F-89.0928154
aF30.3674198
asS'Soddy-Daisy TN'
p603
(lp604
F-85.1907903
aF35.2359025
asS'Republic MO'
p605
(lp606
F-93.4807
aF37.1202149
asS'West Palm Beach FL'
p607
(lp608
F-80.0533745
aF26.7153425
asS'Antigo WI'
p609
(lp610
F-89.1523349
aF45.140245
asS'Miami Beach FL'
p611
(lp612
F-80.1272704
aF25.7881436
asS'Rosalia KS'
p613
(lp614
F-96.6197415
aF37.8152985
asS'Elsmere KY'
p615
(lp616
F-84.6046662
aF39.0125608
asS'Shelbyville TN'
p617
(lp618
F-86.4602716
aF35.483406
asS'Gaston County NC'
p619
(lp620
F-77.6449803
aF36.5004281
asS'Rib Mountain WI'
p621
(lp622
F-89.6558451
aF44.9112334
asS'Camarillo CA'
p623
(lp624
F-119.0376023
aF34.2163939
asS'Hawthorne CA'
p625
(lp626
F-118.3481599
aF33.911454
asS'Riverview FL'
p627
(lp628
F-82.3269882
aF27.871197
asS'Hopewell VA'
p629
(lp630
F-79.4639157
aF36.7468036
asS'French Lick IN'
p631
(lp632
F-86.6199658
aF38.5502547
asS'Maryneal TX'
p633
(lp634
F-100.4503797
aF32.2354051
asS'Montpelier OH'
p635
(lp636
F-84.6055075
aF41.5844951
asS'Parker AZ'
p637
(lp638
F-114.2891176
aF34.1500162
asS'Beckville TX'
p639
(lp640
F-94.4554781
aF32.2429366
asS'Whitehaven TN'
p641
(lp642
F-90.029258
aF35.0273144
asS'Montgomery Village MD'
p643
(lp644
F-77.2030296
aF39.1729034
asS'Hominy OK'
p645
(lp646
F-96.3952962
aF36.4142357
asS'Lake Elsinore CA'
p647
(lp648
F-117.3272614
aF33.6680772
asS'Dillon MT'
p649
(lp650
F-112.6378441
aF45.216416
asS'Ridgefield WA'
p651
(lp652
F-122.7433774
aF45.8167616
asS'Lovington NM'
p653
(lp654
F-103.3485542
aF32.9440077
asS'Garden City ID'
p655
(lp656
F-116.2381786
aF43.622111
asS'McDowell MO'
p657
(lp658
F-93.7932553
aF36.8242287
asS'Brookville IN'
p659
(lp660
F-85.0127375
aF39.4231065
asS'York PA'
p661
(lp662
F-76.7273919
aF39.962398
asS'Beverly MA'
p663
(lp664
F-70.880049
aF42.5584284
asS'Tuscaloosa AL'
p665
(lp666
F-87.5675257
aF33.2095614
asS'Logan County OK'
p667
(lp668
F-100.2173587
aF36.5728095
asS'Seneca SC'
p669
(lp670
F-82.9527287
aF34.6865321
asS'Stoneville NC'
p671
(lp672
F-79.9069846
aF36.4665269
asS'Auburndale FL'
p673
(lp674
F-81.8037623042688
aF28.10798645
asS'Whittier CA'
p675
(lp676
F-118.0336974
aF33.9748932
asS'North Hills CA'
p677
(lp678
F-118.4786219
aF34.239054
asS'Whitewright TX'
p679
(lp680
F-96.3924832
aF33.5128856
asS'Elberton GA'
p681
(lp682
F-82.8670838
aF34.1112226
asS'Gadsden AL'
p683
(lp684
F-86.0066682
aF34.0143796
asS'Antioch TN'
p685
(lp686
F-85.6583123
aF36.2753371
asS'Northwood OH'
p687
(lp688
F-83.4688203
aF41.607272
asS'Knoxville TN'
p689
(lp690
F-83.921026
aF35.9603948
asS'Spenard AK'
p691
(lp692
F-149.9063888
aF61.1886111
asS'Franklin NC'
p693
(lp694
F-83.3815428
aF35.1823171
asS'Chattanooga TN'
p695
(lp696
F-85.30968
aF35.0456297
asS'Arlington VA'
p697
(lp698
F-77.0841584
aF38.8903961
asS'Salem OR'
p699
(lp700
F-123.0331209
aF44.9391565
asS'Bristol TN'
p701
(lp702
F-82.1885211
aF36.5945034
asS'Hunters WA'
p703
(lp704
F-118.2019312
aF48.1168314
asS'Highland CA'
p705
(lp706
F-117.2086512
aF34.1283442
asS'Schenectady NY'
p707
(lp708
F-73.9395686
aF42.8142432
asS'Denton TX'
p709
(lp710
F-97.1330515
aF33.2150386
asS'El Paso TX'
p711
(lp712
F-106.501349295577
aF31.8111305
asS'District Heights MD'
p713
(lp714
F-76.889417
aF38.8576128
asS'Springfield MO'
p715
(lp716
F-93.298252
aF37.2153307
asS'Byron CA'
p717
(lp718
F-121.6380068
aF37.8671477
asS'Georgetown KY'
p719
(lp720
F-84.558831
aF38.2097967
asS'Gallatin TN'
p721
(lp722
F-86.4475897
aF36.3883031
asS'Roy UT'
p723
(lp724
F-112.0261902
aF41.1617999
asS'Bel Air MD'
p725
(lp726
F-76.3490395
aF39.5355063
asS'Decatur GA'
p727
(lp728
F-84.2960689
aF33.7737582
asS'Cle Elum WA'
p729
(lp730
F-120.9400631
aF47.1952417
asS'Mansfield OH'
p731
(lp732
F-82.515447
aF40.75839
asS'Venice CA'
p733
(lp734
F-118.4668874
aF33.995044
asS'Lakewood WA'
p735
(lp736
F-122.5163999
aF47.1714085
asS'Trenton MI'
p737
(lp738
F-83.1800543
aF42.1406552
asS'Detroit MI'
p739
(lp740
F-83.0567374
aF42.3486635
asS'New London WI'
p741
(lp742
F-88.7398254
aF44.3927581
asS'Hayward CA'
p743
(lp744
F-122.0807963
aF37.6688205
asS'Glendale AZ'
p745
(lp746
F-112.1858156
aF33.5389854
asS'Fritch TX'
p747
(lp748
F-101.6032279
aF35.6397656
asS'Ruidoso NM'
p749
(lp750
F-105.673099
aF33.3315804
asS'Portsmouth VA'
p751
(lp752
F-76.2982741
aF36.8354258
asS'Broomfield CO'
p753
(lp754
F-105.0691463
aF39.9203827
asS'Douglasville GA'
p755
(lp756
F-84.7477135
aF33.7514966
asS'Cochran GA'
p757
(lp758
F-83.3546097
aF32.3868278
asS'Cobb County GA'
p759
(lp760
F-83.9883904
aF31.9587194
asS'Germantown PA'
p761
(lp762
F-75.1801774
aF40.0434449
asS'La Quinta CA'
p763
(lp764
F-116.2958788
aF33.677474
asS'Pensacola FL'
p765
(lp766
F-87.2169148
aF30.421309
asS'Odessa MO'
p767
(lp768
F-99.2567609
aF40.701678
asS'Mora MN'
p769
(lp770
F-93.2938351
aF45.8769031
asS'Columbia TN'
p771
(lp772
F-87.035283
aF35.6150716
asS'Hog Valley FL'
p773
(lp774
F-81.8953646
aF29.494415
asS'Monterey CA'
p775
(lp776
F-121.8946387
aF36.600256
asS'Stafford VA'
p777
(lp778
F-77.4083162
aF38.4220693
asS'Spartanburg SC'
p779
(lp780
F-81.9320156
aF34.9498007
asS'Paddock Lake WI'
p781
(lp782
F-88.1050852
aF42.5775187
asS'Fulton KY'
p783
(lp784
F-88.8742259
aF36.5042277
asS'Lumpkin GA'
p785
(lp786
F-84.79909
aF32.0509895
asS'Hacienda Heights CA'
p787
(lp788
F-117.9686754
aF33.9930677
asS'Kennewick WA'
p789
(lp790
F-119.1372337
aF46.2112458
asS'West Goshen CA'
p791
(lp792
F-119.4201203
aF36.3510616
asS'Hollywood Hills CA'
p793
(lp794
F-118.3355473
aF34.1311792
asS'Hanover NM'
p795
(lp796
F-108.0911534
aF32.8134085
asS'Salt Lake City UT'
p797
(lp798
F-111.8904307
aF40.7670126
asS'Troy NY'
p799
(lp800
F-73.691785
aF42.7284117
asS'Kansas City MO'
p801
(lp802
F-94.5630297
aF39.0844687
asS'Fairfield CT'
p803
(lp804
F-73.2637257
aF41.1412078
asS'Fairfield CA'
p805
(lp806
F-122.0399662
aF38.2493581
asS'Wausau WI'
p807
(lp808
F-89.6298238
aF44.9596017
asS'Clute TX'
p809
(lp810
F-95.398829
aF29.0246906
asS'Marion IL'
p811
(lp812
F-88.9331255
aF37.7306054
asS'Holland Township MI'
p813
(lp814
F-86.1090827
aF42.7876022
asS'Gresham OR'
p815
(lp816
F-122.4367057
aF45.5067406
asS'York County VA'
p817
(lp818
F-76.5038888
aF37.2563889
asS'San Antonio TX'
p819
(lp820
F-98.4951404
aF29.4246002
asS'Tualatin OR'
p821
(lp822
F-122.7663517
aF45.3838546
asS'Englewood CO'
p823
(lp824
F-104.987964
aF39.6482059
asS'York NE'
p825
(lp826
F-97.5920259
aF40.868095
asS'Laredo TX'
p827
(lp828
F-99.5088978
aF27.5060991
asS'Palm Beach Gardens FL'
p829
(lp830
F-80.1353087134005
aF26.84176195
asS'Ca\xc3\xb1on City CO'
p831
(lp832
F-105.2052532
aF38.4481246
asS'Metropolis IL'
p833
(lp834
F-88.7319978
aF37.1511655
asS'Lake Wales FL'
p835
(lp836
F-81.5859098
aF27.9014133
asS'Circleville OH'
p837
(lp838
F-82.9460132
aF39.600618
asS'Beaverton OR'
p839
(lp840
F-122.8037803
aF45.4871723
asS'Alpine CA'
p841
(lp842
F-118.106461
aF34.5391583
asS'Somerton AZ'
p843
(lp844
F-114.7096769
aF32.5964404
asS'Cabazon CA'
p845
(lp846
F-116.7866931
aF33.9170402
asS'Gilroy CA'
p847
(lp848
F-121.5631722
aF37.0065078
asS'Richmond VA'
p849
(lp850
F-77.4342799
aF37.5385087
asS'Concord CA'
p851
(lp852
F-122.0335623
aF37.9768525
asS'Naples ME'
p853
(lp854
F-70.6098179
aF43.972063
asS'Thornton CO'
p855
(lp856
F-104.9719242
aF39.8680412
asS'Geneva Township OH'
p857
(lp858
F-80.9481489
aF41.805054
asS'Des Moines IA'
p859
(lp860
F-93.6037148
aF41.5910641
asS'Marina CA'
p861
(lp862
F-121.800639730262
aF36.6900785
asS'Gillette WY'
p863
(lp864
F-105.5018758
aF44.2906347
asS'Upper Darby PA'
p865
(lp866
F-75.2737954
aF39.9284459
asS'Atwater CA'
p867
(lp868
F-120.6090839
aF37.3477174
asS'Azle TX'
p869
(lp870
F-97.5519696144946
aF32.910378
asS'Riverside CA'
p871
(lp872
F-117.3961622
aF33.9533546
asS'Federal Way WA'
p873
(lp874
F-122.3393102
aF47.313494
asS'Albuquerque NM'
p875
(lp876
F-106.650985
aF35.0841034
asS'Lisle IL'
p877
(lp878
F-88.0747874
aF41.801141
asS'Middleburg FL'
p879
(lp880
F-81.8603777
aF30.0688512
asS'Port St. Lucie FL'
p881
(lp882
F-80.3503282
aF27.2939333
asS'Brooklyn NY'
p883
(lp884
F-73.9495822
aF40.6501038
asS'Millston WI'
p885
(lp886
F-90.6476353
aF44.1930179
asS'Anson County NC'
p887
(lp888
F-78.5947448711269
aF35.90535635
asS'Mandan ND'
p889
(lp890
F-100.8897041
aF46.826415
asS'Harvey IL'
p891
(lp892
F-87.6467131
aF41.6100344
asS'Brawley CA'
p893
(lp894
F-115.515942408323
aF33.018515
asS'Berrien County MI'
p895
(lp896
F-86.3388964
aF41.9464336
asS'Niceville FL'
p897
(lp898
F-86.4914529150494
aF30.522651
asS'Fullerton CA'
p899
(lp900
F-117.9294164
aF33.8708215
asS'Princeton KY'
p901
(lp902
F-87.8819594
aF37.1092162
asS'Everett WA'
p903
(lp904
F-122.2013997
aF47.9673056
asS'Anadarko OK'
p905
(lp906
F-98.2436625
aF35.072562
asS'Spanish Fork UT'
p907
(lp908
F-111.6549229
aF40.114955
asS'Avella PA'
p909
(lp910
F-80.4606225
aF40.2750705
asS'Grapeview WA'
p911
(lp912
F-122.8243818
aF47.3280934
asS'Bath NH'
p913
(lp914
F-71.9666289
aF44.16743
asS'Syracuse UT'
p915
(lp916
F-112.0638902
aF41.0895938
asS'Shafter CA'
p917
(lp918
F-119.285365133155
aF35.4698255
asS'Frederica DE'
p919
(lp920
F-75.4657541
aF39.0090017
asS'Douglas WY'
p921
(lp922
F-105.3822069
aF42.75969
asS'Osteen FL'
p923
(lp924
F-81.1625611
aF28.8461019
asS'Fontana CA'
p925
(lp926
F-117.4350479
aF34.0922335
asS'Las Cruces NM'
p927
(lp928
F-106.7798077
aF32.3140354
asS'Salinas CA'
p929
(lp930
F-121.6550371
aF36.6744117
asS'Portland ME'
p931
(lp932
F-70.2548595
aF43.6610277
asS'Lafayette IN'
p933
(lp934
F-86.8752868
aF40.4167022
asS'Fort Collins CO'
p935
(lp936
F-105.0668084
aF40.5508527
asS'Edinburg TX'
p937
(lp938
F-98.16245
aF26.3013982
asS'Edgewood NM'
p939
(lp940
F-106.191414
aF35.0614358
asS'Broken Bow OK'
p941
(lp942
F-94.7391044
aF34.0292764
asS'Bethany OK'
p943
(lp944
F-97.6322647
aF35.5186728
asS'Lansing IL'
p945
(lp946
F-84.5553804
aF42.7337712
asS'Snohomish WA'
p947
(lp948
F-122.0899645
aF47.9180275
asS'Topeka KS'
p949
(lp950
F-95.6775556
aF39.0490111
asS'Wilhoit AZ'
p951
(lp952
F-112.5868397
aF34.4258586
asS'North Charleston SC'
p953
(lp954
F-79.9748102
aF32.8546197
asS'Seagoville TX'
p955
(lp956
F-96.5383227
aF32.6395776
asS'Jonesboro AR'
p957
(lp958
F-90.7034521
aF35.8428646
asS'Gardner KS'
p959
(lp960
F-94.9272957
aF38.8109254
asS'Counce TN'
p961
(lp962
F-88.273374
aF35.0423075
asS'Covington GA'
p963
(lp964
F-83.8601826
aF33.5967815
asS'Asheville NC'
p965
(lp966
F-82.554016
aF35.6009498
asS'New City NY'
p967
(lp968
F-73.9902997
aF41.1469917
asS'Whitfield County GA'
p969
(lp970
F-84.9479915
aF33.0770682
asS'Manatee FL'
p971
(lp972
F-82.5395409
aF27.4964282
asS'Alamo TN'
p973
(lp974
F-89.1172882
aF35.7847949
asS'Parker CO'
p975
(lp976
F-104.7612637
aF39.5184514
asS'Bartlesville OK'
p977
(lp978
F-95.9782965
aF36.7494864
asS'Jackson County AL'
p979
(lp980
F-87.8944434
aF31.5090521
asS'Powhatan County VA'
p981
(lp982
F-77.9190618
aF37.5420237
asS'Tomball TX'
p983
(lp984
F-95.6160548
aF30.0971621
asS'Waco TX'
p985
(lp986
F-97.1466694
aF31.549333
asS'Wilmington CA'
p987
(lp988
F-118.262571
aF33.780018
asS'Lancaster KY'
p989
(lp990
F-84.5779956
aF37.6195246
asS'Moncks Corner SC'
p991
(lp992
F-80.0131373
aF33.1960027
asS'Ludlow KY'
p993
(lp994
F-84.5474434
aF39.0925598
asS'Pine River WI'
p995
(lp996
F-89.0770602
aF44.1522015
asS'Newnan GA'
p997
(lp998
F-84.7996572
aF33.3806716
asS'Bisbee AZ'
p999
(lp1000
F-109.9284024
aF31.4481481
asS'Tulsa OK'
p1001
(lp1002
F-95.9929112
aF36.1556805
asS'Weirton WV'
p1003
(lp1004
F-80.5895166
aF40.4189566
asS'Sylvania Township OH'
p1005
(lp1006
F-83.7129934
aF41.7189392
asS'Boone IA'
p1007
(lp1008
F-93.8802272
aF42.0597047
asS'Bend OR'
p1009
(lp1010
F-121.3153095
aF44.0581728
asS'Kentwood MI'
p1011
(lp1012
F-85.6447491
aF42.8694731
asS'King George VA'
p1013
(lp1014
F-77.1844221
aF38.2681837
asS'Beaver Dam WI'
p1015
(lp1016
F-88.8373289
aF43.4577692
asS'Bloomington MN'
p1017
(lp1018
F-93.3204871
aF44.8322405
asS'Chestertown MD'
p1019
(lp1020
F-76.0666125
aF39.2089986
asS'North Laredo TX'
p1021
(lp1022
F-99.5088978
aF27.5060991
asS'North Royalton OH'
p1023
(lp1024
F-81.7245738
aF41.3136644
asS'Kinston NC'
p1025
(lp1026
F-77.5816352
aF35.2626635
asS'Warren MI'
p1027
(lp1028
F-83.0277
aF42.4775364
asS'Phoenix AZ'
p1029
(lp1030
F-112.0773455
aF33.4485866
asS'Concord VA'
p1031
(lp1032
F-76.6185653
aF37.3634771
asS'Pasco WA'
p1033
(lp1034
F-119.1005656
aF46.2395793
asS'Johnstown PA'
p1035
(lp1036
F-78.9219697
aF40.3267407
asS'Eldorado Springs CO'
p1037
(lp1038
F-105.2769347
aF39.9324862
asS'Slidell LA'
p1039
(lp1040
F-89.7811744
aF30.2751945
asS'Tahoka TX'
p1041
(lp1042
F-101.792888
aF33.166872
asS'Guthrie OK'
p1043
(lp1044
F-97.4252771
aF35.8789231
asS'Monroeville AL'
p1045
(lp1046
F-87.3247076
aF31.5279399
asS'Billings MT'
p1047
(lp1048
F-108.4960699
aF45.7874957
asS'Sand Springs OK'
p1049
(lp1050
F-96.1100024
aF36.1394339
asS'Point Loma CA'
p1051
(lp1052
F-117.249898324974
aF34.0754897
asS'Brookhaven MS'
p1053
(lp1054
F-90.4406505
aF31.5790588
asS'Bullhead City AZ'
p1055
(lp1056
F-114.5682982
aF35.1477774
asS'St. Louis MO'
p1057
(lp1058
F-90.1978888
aF38.6272733
asS'East Flat Rock NC'
p1059
(lp1060
F-82.422063
aF35.2801166
asS'Weymouth MA'
p1061
(lp1062
F-70.9391624
aF42.2212188
asS'Colbert OK'
p1063
(lp1064
F-96.5024916
aF33.8531568
asS'Norman VA'
p1065
(lp1066
F-78.0649983
aF38.5126247
asS'Apple Valley CA'
p1067
(lp1068
F-117.1858758
aF34.5008311
asS'Denver CO'
p1069
(lp1070
F-104.9847033
aF39.7391536
asS'Ogden UT'
p1071
(lp1072
F-111.9738428
aF41.2230048
asS'Gastonia NC'
p1073
(lp1074
F-81.1873004
aF35.262082
asS'Kokomo IN'
p1075
(lp1076
F-86.133635
aF40.4864444
asS'Austin MN'
p1077
(lp1078
F-92.9744895
aF43.6680928
asS'White GA'
p1079
(lp1080
F-84.7452137
aF34.2828722
asS'Capitol Heights MD'
p1081
(lp1082
F-76.915944
aF38.8853963
asS'Tucson AZ'
p1083
(lp1084
F-110.9264758
aF32.2217422
asS'Opp AL'
p1085
(lp1086
F-86.2555066
aF31.2826685
asS'Portage MI'
p1087
(lp1088
F-85.5800021
aF42.2011538
asS'Wagoner OK'
p1089
(lp1090
F-95.3694115
aF35.9595442
asS'Beaumont TX'
p1091
(lp1092
F-94.101846
aF30.0860459
asS'Monteagle TN'
p1093
(lp1094
F-85.8396978
aF35.2400807
asS'Cisco TX'
p1095
(lp1096
F-98.9792335
aF32.3881861
asS'Beaver WA'
p1097
(lp1098
F-80.3047886
aF40.6953896
asS'Glendale CA'
p1099
(lp1100
F-118.2485959
aF34.142498
asS'Inglewood CA'
p1101
(lp1102
F-118.353131
aF33.9616801
asS'Okemah OK'
p1103
(lp1104
F-96.3050063
aF35.4325854
asS'Findlay OH'
p1105
(lp1106
F-83.6503981
aF41.0413873
asS'Macon County AL'
p1107
(lp1108
F-86.0771943
aF33.7306556
asS'Myrtle Beach SC'
p1109
(lp1110
F-78.8900408
aF33.6956461
asS'Carmichael CA'
p1111
(lp1112
F-121.3282842
aF38.617127
asS'Wilderville OR'
p1113
(lp1114
F-123.4670076
aF42.382338
asS'Chino CA'
p1115
(lp1116
F-117.6900749
aF34.0133561
asS'Norfolk VA'
p1117
(lp1118
F-76.2929251
aF36.8462923
asS'Anaheim CA'
p1119
(lp1120
F-117.9117319
aF33.8347516
asS'Paris TX'
p1121
(lp1122
F-95.5555129
aF33.6617962
asS'Boston MA'
p1123
(lp1124
F-71.0595677
aF42.3604823
asS'Ishpeming Township MI'
p1125
(lp1126
F-87.6676359
aF46.488547
asS'Philadelphia PA'
p1127
(lp1128
F-75.1635898
aF39.9523993
asS'Owensboro KY'
p1129
(lp1130
F-87.1133303
aF37.7742152
asS'North St. Louis MO'
p1131
(lp1132
F-90.1978888
aF38.6272733
asS'Grants Pass OR'
p1133
(lp1134
F-123.3272488
aF42.4393707
asS'Denham Springs LA'
p1135
(lp1136
F-90.9562124
aF30.4868564
asS'Claymont DE'
p1137
(lp1138
F-75.4596403
aF39.8006685
asS'Compton CA'
p1139
(lp1140
F-118.2260433
aF33.8948824
asS'Mesa AZ'
p1141
(lp1142
F-111.586066076293
aF33.436188
asS'McAlester OK'
p1143
(lp1144
F-95.7697933
aF34.9334981
asS'Fisty KY'
p1145
(lp1146
F-83.1015576
aF37.3339851
asS'Fort Pierce FL'
p1147
(lp1148
F-80.3256055
aF27.4467056
asS'Alton IL'
p1149
(lp1150
F-90.1842763
aF38.8906038
asS'Hurst TX'
p1151
(lp1152
F-97.1705677
aF32.8234621
asS'Maiden NC'
p1153
(lp1154
F-81.2139215
aF35.5766048
asS'Oak Hill OH'
p1155
(lp1156
F-82.2409892
aF40.4142318
asS'Tyrone GA'
p1157
(lp1158
F-82.8612562
aF33.6723506
asS'Boulder Creek CA'
p1159
(lp1160
F-122.1221868
aF37.1260578
asS'Houston TX'
p1161
(lp1162
F-95.3676973
aF29.7589382
asS'Hammett ID'
p1163
(lp1164
F-115.4661858
aF42.9457307
asS'Clinton NC'
p1165
(lp1166
F-78.3233329
aF34.997945
asS'Cheektowaga NY'
p1167
(lp1168
F-78.7547535
aF42.9033917
asS'Aitkin MN'
p1169
(lp1170
F-93.7102492
aF46.533013
asS'Falcon Heights MN'
p1171
(lp1172
F-93.1762506
aF44.9898128
asS'Chavies KY'
p1173
(lp1174
F-83.3562911
aF37.3478703
asS'Meadow Vista CA'
p1175
(lp1176
F-121.0218886
aF39.0010079
asS'Alexandria MN'
p1177
(lp1178
F-95.3778829
aF45.8846686
asS'Santa Monica CA'
p1179
(lp1180
F-118.4875489
aF34.019657
asS'Lakeland FL'
p1181
(lp1182
F-81.9498041
aF28.0394654
asS'Rexburg ID'
p1183
(lp1184
F-111.7870221
aF43.8235163
asS'Santa Nella CA'
p1185
(lp1186
F-122.9666643
aF38.497135
asS'Salemburg NC'
p1187
(lp1188
F-78.5030619
aF35.015447
asS'Allen TX'
p1189
(lp1190
F-96.6705502
aF33.1031744
asS'Friendswood TX'
p1191
(lp1192
F-95.2010446
aF29.5293998
asS'Strasburg CO'
p1193
(lp1194
F-104.3232924
aF39.7383163
asS'Beaverton MI'
p1195
(lp1196
F-84.4847319
aF43.882247
asS'Smyrna ME'
p1197
(lp1198
F-68.164192
aF46.1294957
asS'Pittsburgh PA'
p1199
(lp1200
F-79.990086
aF40.4416941
asS'York County PA'
p1201
(lp1202
F-76.7273919
aF39.962398
asS'Brownsville TX'
p1203
(lp1204
F-97.4890855
aF25.9140256
asS'Honolulu HI'
p1205
(lp1206
F-157.8556763
aF21.304547
asS'Santee CA'
p1207
(lp1208
F-116.9739166
aF32.8383828
asS'Longview TX'
p1209
(lp1210
F-94.740489
aF32.5007038
asS'Pittston PA'
p1211
(lp1212
F-75.7893603
aF41.3259134
asS'Lemoore CA'
p1213
(lp1214
F-119.7829106
aF36.3007835
asS'Cartersville GA'
p1215
(lp1216
F-84.7529081410782
aF34.180725
asS'Temple TX'
p1217
(lp1218
F-97.3427846
aF31.098207
asS'Morristown TN'
p1219
(lp1220
F-83.2948922
aF36.2139814
asS'Fort Stockton TX'
p1221
(lp1222
F-102.8793221
aF30.8940431
asS'Gardena CA'
p1223
(lp1224
F-118.3076479
aF33.888658
asS'Spencer WV'
p1225
(lp1226
F-81.3509776
aF38.8021446
asS'Efland NC'
p1227
(lp1228
F-79.1691811
aF36.0812507
asS'Webster MA'
p1229
(lp1230
F-71.8800719
aF42.0500965
asS'Douglas GA'
p1231
(lp1232
F-82.8498653
aF31.5088073
asS'Johnson City TN'
p1233
(lp1234
F-82.3534727
aF36.3134398
asS'Spring Hill TN'
p1235
(lp1236
F-86.9300022
aF35.751179
asS'Addison TX'
p1237
(lp1238
F-96.8302599315605
aF32.9604305
asS'Hackensack NJ'
p1239
(lp1240
F-74.0434735
aF40.8859326
asS'Sims AR'
p1241
(lp1242
F-80.8017568
aF37.9434499
asS'Savannah GA'
p1243
(lp1244
F-81.0998341
aF32.0835407
asS'Wyoming MI'
p1245
(lp1246
F-85.7057034
aF42.9132581
asS'Winchester VA'
p1247
(lp1248
F-78.1652403
aF39.1852184
asS'Paris KY'
p1249
(lp1250
F-84.2529868
aF38.2097987
asS'Arab AL'
p1251
(lp1252
F-86.4958218
aF34.3181497
asS'Arvonia VA'
p1253
(lp1254
F-78.3413917
aF37.683478
asS'Taos NM'
p1255
(lp1256
F-105.5730664
aF36.4072485
asS'Lake Asbury FL'
p1257
(lp1258
F-81.821487
aF30.0491293
asS'Bangor ME'
p1259
(lp1260
F-68.7778137
aF44.8011821
asS'St Louis MO'
p1261
(lp1262
F-90.1978888
aF38.6272733
asS'Rainbow City AL'
p1263
(lp1264
F-86.1399643173833
aF33.928922
asS'Lakeland TN'
p1265
(lp1266
F-89.7403605
aF35.2306435
asS'Scottsdale AZ'
p1267
(lp1268
F-111.8992364
aF33.5091215
asS'Port Wentworth GA'
p1269
(lp1270
F-81.163168
aF32.149092
asS'Fountain Valley CA'
p1271
(lp1272
F-117.9627348
aF33.7038145
asS'Chambersburg PA'
p1273
(lp1274
F-77.6598623
aF39.9405903
asS'Port Arthur TX'
p1275
(lp1276
F-93.9287814
aF29.8988258
asS'Azusa CA'
p1277
(lp1278
F-117.9056045
aF34.1338751
asS'Staten Island NY'
p1279
(lp1280
F-74.1496047
aF40.5834557
asS'Salisbury MD'
p1281
(lp1282
F-75.600888
aF38.3662114
asS'Round Lake IL'
p1283
(lp1284
F-88.0934144
aF42.353355
asS'Kingsbury TX'
p1285
(lp1286
F-97.8280575
aF29.6480061
asS'Conroe TX'
p1287
(lp1288
F-95.4560511
aF30.3118769
asS'Berea KY'
p1289
(lp1290
F-84.2963223
aF37.568694
asS'Hardeeville SC'
p1291
(lp1292
F-81.0726107
aF32.2802665
asS'Sun City AZ'
p1293
(lp1294
F-112.2819336
aF33.6290111
asS'Raleigh TN'
p1295
(lp1296
F-89.9136984
aF35.2059218
asS'Antioch IL'
p1297
(lp1298
F-88.0956395
aF42.4772418
asS'Panama City Beach FL'
p1299
(lp1300
F-85.8054878
aF30.1765914
asS'Titusville FL'
p1301
(lp1302
F-80.8075537
aF28.6122187
asS'Vallejo CA'
p1303
(lp1304
F-122.2566366
aF38.1040864
asS'Rockford IL'
p1305
(lp1306
F-89.0939659
aF42.2713945
asS'Plantation FL'
p1307
(lp1308
F-80.257861137651
aF26.1265258
asS'Reno NV'
p1309
(lp1310
F-119.8136743
aF39.52927
asS'Redding CA'
p1311
(lp1312
F-122.3916753
aF40.5863563
asS'Princeton WV'
p1313
(lp1314
F-81.1025774
aF37.366328
asS'Edmund SC'
p1315
(lp1316
F-81.1997258
aF33.8614622
asS'Elkton MD'
p1317
(lp1318
F-75.8332719
aF39.606779
asS'Victoria TX'
p1319
(lp1320
F-97.0035981
aF28.8052674
asS'Carrollton GA'
p1321
(lp1322
F-85.0766112
aF33.5801103
asS'Tempe AZ'
p1323
(lp1324
F-111.9094473
aF33.4144139
asS'Walls MS'
p1325
(lp1326
F-90.1517604
aF34.9578728
asS'Newark CA'
p1327
(lp1328
F-122.0402398
aF37.5296593
asS'Casa Grande AZ'
p1329
(lp1330
F-111.7575613
aF32.8793816
asS'Gary IN'
p1331
(lp1332
F-87.3371371
aF41.6021292
asS'Malta MT'
p1333
(lp1334
F-107.8686179
aF48.355901
asS'Barton MS'
p1335
(lp1336
F-88.5980784
aF30.771023
asS'Weatherford TX'
p1337
(lp1338
F-97.7970747
aF32.7589648
asS'Cape Coral FL'
p1339
(lp1340
F-81.9807339
aF26.6058996
asS'San Francisco CA'
p1341
(lp1342
F-122.4192362
aF37.7792808
asS'Olathe KS'
p1343
(lp1344
F-94.8161126
aF38.8843867
asS'Parowan UT'
p1345
(lp1346
F-112.8279995
aF37.8421975
asS'Burns Flat OK'
p1347
(lp1348
F-99.1703616
aF35.3489398
asS'Flagstaff AZ'
p1349
(lp1350
F-111.6514258
aF35.199458
asS'Castaic CA'
p1351
(lp1352
F-118.6228655
aF34.4888822
asS'South Lake Tahoe CA'
p1353
(lp1354
F-119.987846390157
aF38.929125
asS'Tahlequah OK'
p1355
(lp1356
F-94.9699559
aF35.91537
asS'Cape Canaveral FL'
p1357
(lp1358
F-80.6032640248485
aF28.3881698
asS'Oregon City OR'
p1359
(lp1360
F-122.6067582
aF45.3573429
asS'Leon County TX'
p1361
(lp1362
F-98.6119407563444
aF29.5018646
asS'Pueblo CO'
p1363
(lp1364
F-104.6091409
aF38.2544472
asS'Torrance CA'
p1365
(lp1366
F-118.3406287
aF33.8358492
asS'Stockbridge GA'
p1367
(lp1368
F-84.2338092
aF33.5442781
asS'Indianapolis IN'
p1369
(lp1370
F-86.1583501
aF39.7683331
asS'Saraland AL'
p1371
(lp1372
F-88.0705555
aF30.820742
asS'Dolton IL'
p1373
(lp1374
F-87.6072679
aF41.6389236
asS'Bloomfield Township MI'
p1375
(lp1376
F-83.2939810481481
aF42.575186
asS'Piedmont AL'
p1377
(lp1378
F-85.61135
aF33.9245454
asS'Fort Meade MD'
p1379
(lp1380
F-76.7476151974745
aF39.10517
asS'Shelton WA'
p1381
(lp1382
F-123.1007065
aF47.2150945
asS'Calexico CA'
p1383
(lp1384
F-115.4987029
aF32.6790572
asS'Burkesville KY'
p1385
(lp1386
F-85.3705185
aF36.7903399
asS'Dunsmuir CA'
p1387
(lp1388
F-122.2719529
aF41.208209
asS'Schulter OK'
p1389
(lp1390
F-95.9566634
aF35.5145495
asS'Medina OH'
p1391
(lp1392
F-81.8637473
aF41.1383878
asS'Medicine Lodge KS'
p1393
(lp1394
F-98.5803609
aF37.2811339
asS'Eden GA'
p1395
(lp1396
F-81.3906677
aF32.173813
asS'Kelso WA'
p1397
(lp1398
F-122.9060317
aF46.1420334
asS'Minneapolis MN'
p1399
(lp1400
F-93.2654691
aF44.9772995
asS'Wauwatosa WI'
p1401
(lp1402
F-88.007927
aF43.0494122
asS'Dickson TN'
p1403
(lp1404
F-87.3385653
aF36.0744719
asS'Commerce City CO'
p1405
(lp1406
F-104.9338674
aF39.8083196
asS'Gautier MS'
p1407
(lp1408
F-88.6116854
aF30.385755
asS'Delano CA'
p1409
(lp1410
F-119.2470535
aF35.7688425
asS'Suffield CT'
p1411
(lp1412
F-72.6506461
aF41.9817631
asS'Maricopa AZ'
p1413
(lp1414
F-112.0483266
aF33.0571713
asS'Cranbury Township NJ'
p1415
(lp1416
F-74.5271271690225
aF40.30733165
asS'East Baton Rouge LA'
p1417
(lp1418
F-91.1545509
aF30.4507462
asS'Piedmont SC'
p1419
(lp1420
F-82.4645713
aF34.7023389
asS'Ponder TX'
p1421
(lp1422
F-97.2872402
aF33.1828974
asS'Campobello SC'
p1423
(lp1424
F-82.1501111
aF35.1156714
asS'Ladera Heights CA'
p1425
(lp1426
F-118.3753542
aF33.9941792
asS'Westlake OH'
p1427
(lp1428
F-81.9179173
aF41.4553232
asS'Woodstock GA'
p1429
(lp1430
F-84.5192191
aF34.1014112
asS'Fruitland Park FL'
p1431
(lp1432
F-81.9064704
aF28.8613765
asS'Carrizozo NM'
p1433
(lp1434
F-105.8777245
aF33.6432488
asS'Eau Claire WI'
p1435
(lp1436
F-91.498494
aF44.811349
asS'Alexandria LA'
p1437
(lp1438
F29.894378
aF31.199004
asS'Redlands CA'
p1439
(lp1440
F-117.099505578628
aF34.0707195
asS'Peachland NC'
p1441
(lp1442
F-80.2645068
aF34.993766
asS'New Brunswick NJ'
p1443
(lp1444
F-74.4518172
aF40.4862174
asS'Middletown NY'
p1445
(lp1446
F-74.422934
aF41.4459271
asS'Muscle Shoals AL'
p1447
(lp1448
F-87.6686732
aF34.7451786
asS'Rotterdam NY'
p1449
(lp1450
F-73.9709582
aF42.7870209
asS'Woodland WA'
p1451
(lp1452
F-122.7408325
aF45.9109715
asS'Englewood FL'
p1453
(lp1454
F-82.3525951
aF26.9620053
asS'Loganville GA'
p1455
(lp1456
F-83.9007381
aF33.8389977
asS'Fife WA'
p1457
(lp1458
F-122.362638
aF47.2359524
asS'Cabot AR'
p1459
(lp1460
F-92.0165335
aF34.974532
asS'Cayce SC'
p1461
(lp1462
F-81.0739826
aF33.9657091
asS'Wilkinsburg PA'
p1463
(lp1464
F-79.874928179321
aF40.445498
asS'Pine Top KY'
p1465
(lp1466
F-82.8823825
aF37.2726002
asS'Palm Bay FL'
p1467
(lp1468
F-80.6429694
aF28.0331886
asS'Islip NY'
p1469
(lp1470
F-73.2108617
aF40.7304311
asS'Superior MT'
p1471
(lp1472
F-114.8917977
aF47.1915937
asS'Cumming GA'
p1473
(lp1474
F-84.1401925
aF34.2073196
asS'Rosenberg TX'
p1475
(lp1476
F-95.8085622
aF29.5571825
asS'Byars OK'
p1477
(lp1478
F-97.0500216
aF34.8742466
asS'Hemet CA'
p1479
(lp1480
F-117.035766536246
aF33.778562
asS'Huntsville AL'
p1481
(lp1482
F-86.585901
aF34.729847
asS'Raceland LA'
p1483
(lp1484
F-82.7283274
aF38.5399754
asS'Kirkland WA'
p1485
(lp1486
F-122.1920248
aF47.6859573
asS'Ruth MS'
p1487
(lp1488
F-90.3164819
aF31.3815627
asS'Barrow AK'
p1489
(lp1490
F-156.736772303846
aF71.285478
asS'Commerce GA'
p1491
(lp1492
F-83.4571057
aF34.203997
asS'Derry NH'
p1493
(lp1494
F-71.3264491
aF42.8808677
asS'Lynnwood WA'
p1495
(lp1496
F-122.3053931
aF47.8278656
asS'Pineville LA'
p1497
(lp1498
F-92.4343034
aF31.3224044
asS'Clearlake Park CA'
p1499
(lp1500
F-122.651096
aF38.966564
asS'Mascotte FL'
p1501
(lp1502
F-81.8867451
aF28.5783313
asS'Killeen AL'
p1503
(lp1504
F-97.7277959
aF31.1171441
asS'Stockton CA'
p1505
(lp1506
F-121.2907795
aF37.9577016
asS'Beverly OH'
p1507
(lp1508
F-81.6393771
aF39.5480179
asS'Fremont CA'
p1509
(lp1510
F-121.9885718
aF37.5482697
asS'Morenci AZ'
p1511
(lp1512
F-109.3259808
aF33.0512895
asS'Lawrence County AL'
p1513
(lp1514
F-85.5310714
aF34.2323159
asS'Mountain Pine AR'
p1515
(lp1516
F-93.17324
aF34.5720347
asS'Avondale AZ'
p1517
(lp1518
F-112.340502
aF33.4359175
asS'Jurupa Valley CA'
p1519
(lp1520
F-117.4515753
aF33.9798472
asS'Pinnacle NC'
p1521
(lp1522
F-80.4331115
aF36.3293051
asS'Melbourne FL'
p1523
(lp1524
F-80.6081088
aF28.0836269
asS'Salisbury NC'
p1525
(lp1526
F-80.474226
aF35.6709727
asS'Los Angeles CA'
p1527
(lp1528
F-118.2444759
aF34.054935
asS'Fort Valley GA'
p1529
(lp1530
F-83.8874083
aF32.5537585
asS'Provo UT'
p1531
(lp1532
F-111.6585336
aF40.2338438
asS'Ardmore OK'
p1533
(lp1534
F-97.1436253
aF34.1742611
asS'Fort Wayne IN'
p1535
(lp1536
F-85.1386014
aF41.0799898
asS'Constantia NY'
p1537
(lp1538
F-76.0001969
aF43.247847
asS'Statesville NC'
p1539
(lp1540
F-80.8872958
aF35.7826363
asS'Holiday FL'
p1541
(lp1542
F-82.7395453
aF28.18779
asS'Amarillo TX'
p1543
(lp1544
F-101.8338245
aF35.2072185
asS'Byng OK'
p1545
(lp1546
F-96.6655687
aF34.8611959
asS'Bolton CT'
p1547
(lp1548
F-72.4334172
aF41.7689878
asS'Malone NY'
p1549
(lp1550
F-74.2950439
aF44.84881
asS'Chesapeake VA'
p1551
(lp1552
F-76.2466797
aF36.7183708
asS'Selma AL'
p1553
(lp1554
F-87.0207472
aF32.4078632
asS'Graham WA'
p1555
(lp1556
F-122.2785728
aF47.0395996
asS'Udall KS'
p1557
(lp1558
F-97.1142062
aF37.3875221
asS'Manila AR'
p1559
(lp1560
F-90.1670392
aF35.8800733
asS'Belle Glade FL'
p1561
(lp1562
F-80.6721257680432
aF26.68837015
asS'Wellington FL'
p1563
(lp1564
F-80.2414356
aF26.6586779
asS'Archdale NC'
p1565
(lp1566
F-79.9719829
aF35.914581
asS'Syracuse NY'
p1567
(lp1568
F-76.1474243
aF43.0481221
asS'Mt. Pleasant TN'
p1569
(lp1570
F-88.2486497
aF36.4864444
asS'Toledo OH'
p1571
(lp1572
F-83.5127282
aF41.6786754
asS'Gibson County TN'
p1573
(lp1574
F-85.5174764
aF36.1136731
asS'Grand Prarie TX'
p1575
(lp1576
F-102.4967068
aF31.8811338
asS'Lowell MA'
p1577
(lp1578
F-71.3161717
aF42.6334247
asS'Lincoln CA'
p1579
(lp1580
F-121.342391957924
aF38.8598295
asS'Herndon VA'
p1581
(lp1582
F-77.3859478
aF38.9695316
asS'Chula Vista CA'
p1583
(lp1584
F-117.0841954
aF32.6400541
asS'Bunch OK'
p1585
(lp1586
F-94.7610579
aF35.6825898
asS'Spanaway WA'
p1587
(lp1588
F-122.4243421
aF47.0979462
asS'Greenfield WI'
p1589
(lp1590
F-88.0125864
aF42.9614039
asS'Rosebud SD'
p1591
(lp1592
F-100.8534779
aF43.232782
asS'Potsdam NY'
p1593
(lp1594
F-74.9813348
aF44.6697996
asS'North Las Vegas NV'
p1595
(lp1596
F-115.1120957
aF36.2008371
asS'Watsonville CA'
p1597
(lp1598
F-121.78544647584
aF36.887168
asS'Fairborn OH'
p1599
(lp1600
F-84.0102331768371
aF39.8067455
asS'Marion MI'
p1601
(lp1602
F-88.9331255
aF37.7306054
asS'Lompoc CA'
p1603
(lp1604
F-120.4579408
aF34.6391501
asS'Santa Ana CA'
p1605
(lp1606
F-117.8732212
aF33.7494951
asS'Algoma Township MI'
p1607
(lp1608
F-89.0311738
aF34.1762179
asS'Aloha OR'
p1609
(lp1610
F-122.867045
aF45.4942838
asS'Carson City NV'
p1611
(lp1612
F-119.7674033
aF39.1637984
asS'Houston AK'
p1613
(lp1614
F-149.8180555
aF61.6302778
asS'McPherson KS'
p1615
(lp1616
F-97.6642086
aF38.3708415
asS'Mesquite TX'
p1617
(lp1618
F-96.5994719
aF32.7666103
asS'Owings Mills MD'
p1619
(lp1620
F-76.7962989
aF39.4010753
asS'Terre Haute IN'
p1621
(lp1622
F-87.4139118
aF39.4667025
asS'Burnsville MN'
p1623
(lp1624
F-93.2777225
aF44.7677424
asS'West Odessa TX'
p1625
(lp1626
F-102.4814632
aF31.8359735
asS'Goshen IN'
p1627
(lp1628
F-85.8343659
aF41.5824086
asS'Decatur County TN'
p1629
(lp1630
F-84.7902222
aF35.5147939
asS'Chicago IL'
p1631
(lp1632
F-87.6244211
aF41.8755546
asS'Wood County TX'
p1633
(lp1634
F-96.0238367
aF30.3472834
asS'East Troy WI'
p1635
(lp1636
F-88.4054373
aF42.7851871
asS'Kearny AZ'
p1637
(lp1638
F-110.9106655
aF33.0570085
asS'Sandpoint ID'
p1639
(lp1640
F-116.5532475
aF48.2765903
asS'North East MD'
p1641
(lp1642
F-75.9413326
aF39.6001132
asS'Desha AR'
p1643
(lp1644
F-91.6798618
aF35.7361886
asS'Durham NC'
p1645
(lp1646
F-78.8986189
aF35.9940329
asS'Burns OR'
p1647
(lp1648
F-119.0541031
aF43.5862607
asS'Mount Hope WV'
p1649
(lp1650
F-81.1642681
aF37.8953906
asS'Bakersfield CA'
p1651
(lp1652
F-119.0194638
aF35.3738712
asS'Pikesville MD'
p1653
(lp1654
F-76.7227287
aF39.3745035
asS'Baltimore MD'
p1655
(lp1656
F-76.6107589
aF39.2908816
asS'Apache Junction AZ'
p1657
(lp1658
F-111.5495438
aF33.4150484
asS'Morgantown WV'
p1659
(lp1660
F-79.9559436
aF39.6296809
asS'Orange City FL'
p1661
(lp1662
F-81.298674
aF28.9488761
asS'La Paz County AZ'
p1663
(lp1664
F-112.2865448
aF33.5022635
asS'Rawlins WY'
p1665
(lp1666
F-107.2386671
aF41.7910638
asS'Hilo HI'
p1667
(lp1668
F-155.0816349
aF19.707243
asS'West Jordan UT'
p1669
(lp1670
F-111.939103
aF40.6096698
asS'Southaven MS'
p1671
(lp1672
F-90.0125912
aF34.9889818
asS'Walnut Creek CA'
p1673
(lp1674
F-122.0649629
aF37.9063131
asS'Eaton Rapids Township MI'
p1675
(lp1676
F-84.6558139
aF42.5092039
asS'Rock Island IL'
p1677
(lp1678
F-90.5787476
aF41.5094771
asS'Elkhart IN'
p1679
(lp1680
F-85.976667
aF41.6819935
asS'Olympia WA'
p1681
(lp1682
F-122.8948724
aF47.0450197
asS'Olivehurst CA'
p1683
(lp1684
F-121.5521857
aF39.0954484
asS'Gilmer TX'
p1685
(lp1686
F-94.9424378
aF32.7287472
asS'Winslow NJ'
p1687
(lp1688
F-74.8623867
aF39.6573385
asS'Grand Forks ND'
p1689
(lp1690
F-97.0592027
aF47.9078244
asS'Emporia VA'
p1691
(lp1692
F-77.5424807
aF36.6859828
asS'Woodlawn MD'
p1693
(lp1694
F-76.7459559
aF39.301516
asS'Floral City FL'
p1695
(lp1696
F-82.296758
aF28.7499876
asS'San Manuel AZ'
p1697
(lp1698
F-110.6309288
aF32.5997933
asS'Wetumka OK'
p1699
(lp1700
F-96.2417951
aF35.2319678
asS'Kent WA'
p1701
(lp1702
F-122.2270271
aF47.3826903
asS'San Diego County CA'
p1703
(lp1704
F-117.1627713
aF32.7174209
asS'Panama City FL'
p1705
(lp1706
F-85.6545728
aF30.1600827
asS'Merced CA'
p1707
(lp1708
F-120.4843268
aF37.3029568
asS'Rossville GA'
p1709
(lp1710
F-85.2860675
aF34.9831309
asS'Idaho Falls ID'
p1711
(lp1712
F-112.0400918
aF43.4935245
asS'Mena AR'
p1713
(lp1714
F-94.2396553
aF34.5862171
asS'Colorado City CO'
p1715
(lp1716
F-104.8352627
aF37.9452861
asS'Eufaula AL'
p1717
(lp1718
F-85.1454875
aF31.8912717
asS'Greenwood IN'
p1719
(lp1720
F-86.1066525
aF39.6136578
asS'Landrum SC'
p1721
(lp1722
F-82.1892006
aF35.1751148
asS'Morehead KY'
p1723
(lp1724
F-83.432684
aF38.1839705
asS'Campbelltown PA'
p1725
(lp1726
F-76.5852461
aF40.2775915
asS'Lake City SC'
p1727
(lp1728
F-79.7553451
aF33.8709959
asS'Lufkin TX'
p1729
(lp1730
F-94.7288557
aF31.3386242
asS'Tehachapi CA'
p1731
(lp1732
F-118.4489738
aF35.1321878
asS'Lansing MI'
p1733
(lp1734
F-84.5553804
aF42.7337712
asS'Byram NJ'
p1735
(lp1736
F-75.0596149
aF40.4237156
asS'Bronx NY'
p1737
(lp1738
F-73.8662463
aF40.8501002
asS'Lake Hallie WI'
p1739
(lp1740
F-91.4327557
aF44.8827276
asS'Fort Worth TX'
p1741
(lp1742
F-97.3327458
aF32.753177
asS'Hollywood CA'
p1743
(lp1744
F-118.3299898
aF34.1028268
asS'Edmond OK'
p1745
(lp1746
F-97.4649037
aF35.6571367
asS'Akron OH'
p1747
(lp1748
F-81.5184853
aF41.0830643
asS'Temecula CA'
p1749
(lp1750
F-117.147366
aF33.4946353
asS'Hendersonville TN'
p1751
(lp1752
F-86.6199956
aF36.3047735
asS'Reagan TN'
p1753
(lp1754
F-84.5140972
aF35.551463
asS'Hobbs NM'
p1755
(lp1756
F-103.1360402
aF32.7026116
asS'Eagar AZ'
p1757
(lp1758
F-109.2914749
aF34.1111581
asS'Little Egg Harbor Township NJ'
p1759
(lp1760
F-74.3518380550299
aF39.635931
asS'Cushing OK'
p1761
(lp1762
F-96.7669699
aF35.9850639
asS'Deming NM'
p1763
(lp1764
F-107.7586403
aF32.2686981
asS'Immokalee FL'
p1765
(lp1766
F-81.4172992
aF26.4186898
asS'Alhambra CA'
p1767
(lp1768
F-118.1270599
aF34.093042
asS'Hanover IN'
p1769
(lp1770
F-85.4735706
aF38.7142263
asS'Greenbelt MD'
p1771
(lp1772
F-76.8755281
aF39.0045544
asS'Summerville SC'
p1773
(lp1774
F-80.1747536
aF33.0206179
asS'Loveland CO'
p1775
(lp1776
F-105.07498
aF40.3977612
asS'Wasilla AK'
p1777
(lp1778
F-149.4380984
aF61.5828234
asS'Montrose County CO'
p1779
(lp1780
F-107.876277
aF38.4781927
asS'Newton KS'
p1781
(lp1782
F-97.3447243
aF38.0469166
asS'Taylors SC'
p1783
(lp1784
F-82.2962268
aF34.9203946
asS'Ashwaubenon WI'
p1785
(lp1786
F-88.0607349
aF44.4752606
asS'Lyndhurst NJ'
p1787
(lp1788
F-74.1242815
aF40.8120247
asS'Kings County CA'
p1789
(lp1790
F-119.5538928
aF36.5138398
asS'Miami FL'
p1791
(lp1792
F-80.1936588
aF25.7742658
asS'Ronda NC'
p1793
(lp1794
F-80.9411858
aF36.218467
asS'Bellville TX'
p1795
(lp1796
F-96.2571857
aF29.9502253
asS'Chickasha OK'
p1797
(lp1798
F-97.9364325
aF35.052565
asS'Presque Isle ME'
p1799
(lp1800
F-68.0163569
aF46.681479
asS'Jackson MO'
p1801
(lp1802
F-10.7082199
aF6.46557
asS'East Ridge TN'
p1803
(lp1804
F-85.2519002
aF35.0142412
asS'Columbia MD'
p1805
(lp1806
F-77.0060859
aF38.5931746
asS'Gardnerville Ranchos NV'
p1807
(lp1808
F-119.7412874
aF38.8882398
asS'Aiken SC'
p1809
(lp1810
F-81.7219519
aF33.5598586
asS'Ponca City OK'
p1811
(lp1812
F-97.066734
aF36.7267431
asS'Hummelstown PA'
p1813
(lp1814
F-76.7083032
aF40.2653681
asS'Fort Ashby WV'
p1815
(lp1816
F-78.7680748
aF39.503279
asS'Poway CA'
p1817
(lp1818
F-117.0358645
aF32.9628234
asS'Montgomery AL'
p1819
(lp1820
F-86.3006484
aF32.3669656
asS'Greenville SC'
p1821
(lp1822
F-82.3984881
aF34.851354
asS'Woodbridge NJ'
p1823
(lp1824
F-74.284591
aF40.5576045
asS'Artesia NM'
p1825
(lp1826
F-104.4032962
aF32.8423345
asS'Lakewood CO'
p1827
(lp1828
F-105.084203902224
aF39.6246085
asS'Lealman FL'
p1829
(lp1830
F-82.679266
aF27.8211366
asS'Brick Township NJ'
p1831
(lp1832
F-74.1223151914283
aF40.0691585
asS'Lakewood CA'
p1833
(lp1834
F-118.1171913
aF33.8503463
asS'Henderson County TX'
p1835
(lp1836
F-94.7993801
aF32.1532157
asS'Plaquemine LA'
p1837
(lp1838
F-91.2342743
aF30.2890833
asS'Forest Park IL'
p1839
(lp1840
F-87.8136699
aF41.8794758
asS'Phenix City AL'
p1841
(lp1842
F-85.0007652
aF32.4709761
asS'Springfield OH'
p1843
(lp1844
F-83.8088171
aF39.9242266
asS'Norwalk CA'
p1845
(lp1846
F-118.0849168
aF33.9092802
asS'Portage IN'
p1847
(lp1848
F-87.1761454
aF41.5758708
asS'Chandler AZ'
p1849
(lp1850
F-111.8408488
aF33.3067132
asS'Hallandale Beach FL'
p1851
(lp1852
F-80.1399966146433
aF25.9856006
asS'Lancaster PA'
p1853
(lp1854
F-76.3056685
aF40.03813
asS'Splendora TX'
p1855
(lp1856
F-95.1610437
aF30.2329914
asS'Penn Township PA'
p1857
(lp1858
F-75.8726696588008
aF39.82399895
asS'Ontario CA'
p1859
(lp1860
F-117.6484303
aF34.065846
asS'Estill Springs TN'
p1861
(lp1862
F-86.1280416
aF35.2706372
asS'Lake Havasu City AZ'
p1863
(lp1864
F-114.3440009
aF34.4742786
asS'Dearborn MI'
p1865
(lp1866
F-83.1763144
aF42.3222599
asS'Red Valley AZ'
p1867
(lp1868
F-111.634138353798
aF33.4162343
asS'Garland TX'
p1869
(lp1870
F-96.6388832
aF32.912624
asS'Southington OH'
p1871
(lp1872
F-80.9559239
aF41.308389
asS'Richmond KY'
p1873
(lp1874
F-84.2946538
aF37.7478572
asS'Pearisburg VA'
p1875
(lp1876
F-80.7350711
aF37.3265112
asS'Louisville KY'
p1877
(lp1878
F-85.7594069
aF38.2542376
asS'Clanton AL'
p1879
(lp1880
F-86.6294261
aF32.8387371
asS'Winchester CA'
p1881
(lp1882
F-117.063281109757
aF33.7193845
asS'Gilbert AZ'
p1883
(lp1884
F-111.73794651864
aF33.294207
asS'Logan UT'
p1885
(lp1886
F-111.834863
aF41.7313447
asS'Sugar Creek MO'
p1887
(lp1888
F-94.4446741
aF39.1097268
asS'Breaux Bridge LA'
p1889
(lp1890
F-91.8992836
aF30.2735323
asS'Austin AR'
p1891
(lp1892
F-92.5265476
aF35.442023
asS'Lenoir City TN'
p1893
(lp1894
F-84.2560298
aF35.7972998
asS'San Fernando CA'
p1895
(lp1896
F-118.4389718
aF34.2819461
asS'Wadesboro NC'
p1897
(lp1898
F-80.0767265
aF34.9682097
asS'Kahuku HI'
p1899
(lp1900
F-157.9483799
aF21.679124
asS'Barberville FL'
p1901
(lp1902
F-81.4209009
aF29.1872023
asS'Carrollton TX'
p1903
(lp1904
F-96.8902815
aF32.9537349
asS'Brighton CO'
p1905
(lp1906
F-104.8205282
aF39.9852617
asS'Kyle SD'
p1907
(lp1908
F-102.1765459
aF43.424994
asS'Independence MO'
p1909
(lp1910
F-94.4155067
aF39.0911161
asS'Green Bay WI'
p1911
(lp1912
F-88.0248316
aF44.5299412
asS'Deland FL'
p1913
(lp1914
F-81.2941416253978
aF29.0195145
asS'Hickory NC'
p1915
(lp1916
F-81.3412005
aF35.7331895
asS'City Terrace CA'
p1917
(lp1918
F-118.1828494
aF34.0500116
asS'Brodhead KY'
p1919
(lp1920
F-84.4138258
aF37.4042496
asS'Socorro NM'
p1921
(lp1922
F-106.8930517
aF34.0572791
asS'Smithville MS'
p1923
(lp1924
F-88.3911539
aF34.0701074
asS'Mitchell SD'
p1925
(lp1926
F-98.0253785
aF43.7095303
asS'Harrisonville MO'
p1927
(lp1928
F-94.3484528
aF38.6533446
asS'Santa Maria CA'
p1929
(lp1930
F-120.4358576
aF34.9531295
asS'Mountain View CO'
p1931
(lp1932
F-105.0555388
aF39.7744311
asS'Eugene OR'
p1933
(lp1934
F-123.152383713818
aF44.10118085
asS'Toms River NJ'
p1935
(lp1936
F-74.1979575
aF39.9537359
asS'Leedey OK'
p1937
(lp1938
F-99.3476505
aF35.8698726
asS'Morris MN'
p1939
(lp1940
F-95.9139409
aF45.586072
asS'Perryville AR'
p1941
(lp1942
F-92.8026672
aF35.0048102
asS'Reisterstown MD'
p1943
(lp1944
F-76.8294212
aF39.4695489
asS'McLemoresville TN'
p1945
(lp1946
F-88.5745
aF35.987286
asS'Bay City MI'
p1947
(lp1948
F-83.8888647
aF43.5944677
asS'Clearfield UT'
p1949
(lp1950
F-112.0244381
aF41.1134756
asS'Dallas TX'
p1951
(lp1952
F-96.7968558
aF32.7762719
asS'Sparks NV'
p1953
(lp1954
F-119.7527682
aF39.5348431
asS'West Chester PA'
p1955
(lp1956
F-75.6059637
aF39.9597213
asS'Eastaboga AL'
p1957
(lp1958
F-86.0213586
aF33.6059367
asS'Ozark MO'
p1959
(lp1960
F-81.0817705
aF39.8267392
asS'Lead SD'
p1961
(lp1962
F-103.7651979
aF44.352207
asS'Sidney NE'
p1963
(lp1964
F-102.9772839
aF41.14383
asS'Pearland TX'
p1965
(lp1966
F-95.2864298
aF29.5639758
asS'Thomaston CT'
p1967
(lp1968
F-73.0731639
aF41.6739862
asS'Deerfield IL'
p1969
(lp1970
F-87.8445118
aF42.1711365
asS'Cache OK'
p1971
(lp1972
F-98.628674
aF34.6295165
asS'Springdale AR'
p1973
(lp1974
F-94.1288141
aF36.1867442
asS'Fort Lauderdale FL'
p1975
(lp1976
F-80.1433785
aF26.1223084
asS'Roseville MN'
p1977
(lp1978
F-93.1566106
aF45.0060767
asS'Newark NJ'
p1979
(lp1980
F-74.1723666
aF40.735657
asS'Noma FL'
p1981
(lp1982
F-85.6185439
aF30.9821261
asS'Leland NC'
p1983
(lp1984
F-78.0447142
aF34.2562806
asS'Manchester NJ'
p1985
(lp1986
F-74.3816965
aF39.9734957
asS'Twentynine Palms CA'
p1987
(lp1988
F-116.0543505
aF34.1356915
asS'Jacksonville FL'
p1989
(lp1990
F-81.6556509
aF30.3321838
asS'Paulding County GA'
p1991
(lp1992
F-84.8045598863137
aF33.909316
asS'Boiling Springs SC'
p1993
(lp1994
F-81.9817726
aF35.0465081
asS'Llano TX'
p1995
(lp1996
F-98.6750378
aF30.7593452
asS'Pawtucket RI'
p1997
(lp1998
F-71.3825557
aF41.878711
asS'Fairland OK'
p1999
(lp2000
F-94.8474566
aF36.7511833
asS'North Riverside IL'
p2001
(lp2002
F-87.8152023
aF41.84686
asS'Hoover AL'
p2003
(lp2004
F-86.8104956452321
aF33.4220325
asS'Ludowici GA'
p2005
(lp2006
F-81.7430845
aF31.7097964
asS'Grayson County VA'
p2007
(lp2008
F-80.9486915
aF36.7676248
asS'Shelbyville IN'
p2009
(lp2010
F-85.7769237
aF39.5214373
asS'Brandywine WV'
p2011
(lp2012
F-79.2447607
aF38.6248402
asS'Cottonwood CA'
p2013
(lp2014
F-121.97108
aF38.6582375
asS'Blue Springs MO'
p2015
(lp2016
F-94.2822649
aF39.017316
asS'Reading PA'
p2017
(lp2018
F-75.9279494
aF40.335345
asS'Jean NV'
p2019
(lp2020
F-115.3243139
aF35.7790078
asS'Hampton GA'
p2021
(lp2022
F-84.2829783
aF33.3870578
asS'Burlington IA'
p2023
(lp2024
F-91.1129233
aF40.8075391
asS'South El Monte CA'
p2025
(lp2026
F-118.0467338
aF34.0519548
asS'Milwaukee WI'
p2027
(lp2028
F-87.9224969
aF43.0349931
asS'Palm Springs CA'
p2029
(lp2030
F-116.5403029
aF33.8246269
asS'Neenah WI'
p2031
(lp2032
F-88.4626089
aF44.1858193
asS'Goose Creek SC'
p2033
(lp2034
F-80.0387291
aF32.9961038
asS'Hesston KS'
p2035
(lp2036
F-97.4314266
aF38.1383437
asS'Mansfield TX'
p2037
(lp2038
F-97.1416767
aF32.5631924
asS'North Port FL'
p2039
(lp2040
F-82.2359253
aF27.044224
asS'Benton AR'
p2041
(lp2042
F-92.5868279
aF34.5645372
asS'Des Moines WA'
p2043
(lp2044
F-93.6037148
aF41.5910641
asS'Wichita KS'
p2045
(lp2046
F-97.3375447
aF37.6922361
asS'Rutherfordton NC'
p2047
(lp2048
F-81.9567715
aF35.3692877
asS'Sylvester GA'
p2049
(lp2050
F-83.8354541
aF31.5307349
asS'Buffalo MO'
p2051
(lp2052
F-93.0924092
aF37.6439289
asS'Sharon PA'
p2053
(lp2054
F-80.4934034
aF41.2331116
asS'Roslindale MA'
p2055
(lp2056
F-71.1244965
aF42.2912093
asS'Lynwood CA'
p2057
(lp2058
F-118.2114932
aF33.9303225
asS'Porterville CA'
p2059
(lp2060
F-119.0167678
aF36.06523
asS'Lawrenceville GA'
p2061
(lp2062
F-83.9879624
aF33.9562149
asS'St. Augustine FL'
p2063
(lp2064
F-81.3145394
aF29.8946952
asS'Jennings MO'
p2065
(lp2066
F-90.2611198
aF38.719184
asS'Northglenn CO'
p2067
(lp2068
F-104.9872025
aF39.885541
asS'Braxton County WV'
p2069
(lp2070
F-80.7292648
aF38.7895409
asS'Hawaiian Gardens CA'
p2071
(lp2072
F-118.0743136
aF33.8284787
asS'Belleville IL'
p2073
(lp2074
F-89.9839934
aF38.5200504
asS'Shreveport LA'
p2075
(lp2076
F-93.7651943
aF32.5221828
asS'Weitchpec CA'
p2077
(lp2078
F-123.7083941
aF41.1881821
asS'Leitchfield KY'
p2079
(lp2080
F-86.2938636
aF37.4800544
asS'Antioch CA'
p2081
(lp2082
F-121.8057889
aF38.0049214
asS'Raleigh NC'
p2083
(lp2084
F-78.6390988
aF35.7803977
asS'Lynn MA'
p2085
(lp2086
F-70.9494938
aF42.466763
asS'Frederick MD'
p2087
(lp2088
F-77.4105782
aF39.414443
asS'Clackamas County OR'
p2089
(lp2090
F-122.5660662
aF45.4103887
asS'Clarendon NY'
p2091
(lp2092
F-78.0647389
aF43.193393
asS'Elizabethtown KY'
p2093
(lp2094
F-85.8591284
aF37.693952
asS'Freeport TX'
p2095
(lp2096
F-95.3596616
aF28.9541368
asS'Huntington Park CA'
p2097
(lp2098
F-118.2250724
aF33.9816812
asS'Marksville LA'
p2099
(lp2100
F-92.0662355
aF31.1279652
asS'Birmingham AL'
p2101
(lp2102
F-86.8024325
aF33.5206824
asS'Fountain Inn SC'
p2103
(lp2104
F-82.1956678
aF34.6890095
asS'Huntley MT'
p2105
(lp2106
F-108.3015172
aF45.899401
asS'Crownpoint NM'
p2107
(lp2108
F-108.1472047
aF35.679
asS'Calimesa CA'
p2109
(lp2110
F-117.0619773
aF34.0039044
asS'Yreka CA'
p2111
(lp2112
F-122.6377659
aF41.732616
asS'Oakdale CT'
p2113
(lp2114
F-72.1573007
aF41.4662093
asS'Celina OH'
p2115
(lp2116
F-84.5702337
aF40.5489358
asS'Avon IN'
p2117
(lp2118
F-86.3997167
aF39.7628227
asS'Cerritos CA'
p2119
(lp2120
F-118.0539322
aF33.8644291
asS'Emeryville CA'
p2121
(lp2122
F-122.2865265
aF37.8314089
asS'Stamford CT'
p2123
(lp2124
F-73.538734
aF41.0534302
asS'Saratoga CA'
p2125
(lp2126
F-122.0230145
aF37.2638324
asS'Oakland CA'
p2127
(lp2128
F-122.2713562
aF37.8044557
asS'Rialto CA'
p2129
(lp2130
F-117.3703234
aF34.1064001
asS'Rising Sun MD'
p2131
(lp2132
F-76.0627265
aF39.6978871
asS'Chester PA'
p2133
(lp2134
F-75.3557457
aF39.849557
asS'Irvine CA'
p2135
(lp2136
F-117.8259818
aF33.6856969
asS'Biloxi MS'
p2137
(lp2138
F-88.8853644
aF30.3960318
asS'Wink TX'
p2139
(lp2140
F-103.1598875
aF31.7512396
asS'Charleston SC'
p2141
(lp2142
F-79.9402727
aF32.7876012
asS'New Castle CO'
p2143
(lp2144
F-107.5364442
aF39.5727585
asS'Moultrie GA'
p2145
(lp2146
F-83.7878808
aF31.1811523
asS'Howland Township OH'
p2147
(lp2148
F-80.7453574
aF41.2511682
asS'Greece NY'
p2149
(lp2150
F-77.6930601
aF43.2097838
asS'Alamogordo NM'
p2151
(lp2152
F-105.9603397
aF32.8997997
asS'Bowling Green KY'
p2153
(lp2154
F-86.4436017
aF36.9903199
asS'Atascadero CA'
p2155
(lp2156
F-120.6707254
aF35.4894169
asS'Needles CA'
p2157
(lp2158
F-114.6141315
aF34.8480597
asS'Boise ID'
p2159
(lp2160
F-116.2008349
aF43.61656
asS'Acworth GA'
p2161
(lp2162
F-84.6768795
aF34.0659329
asS'East St. Louis IL'
p2163
(lp2164
F-90.1509428
aF38.6244952
asS'Eagle Mountain UT'
p2165
(lp2166
F-112.0147616
aF40.3066676
asS'Lincoln NE'
p2167
(lp2168
F-96.6678209
aF40.8
asS'Sylacauga AL'
p2169
(lp2170
F-86.2316872681666
aF33.2438695
asS'Orlando FL'
p2171
(lp2172
F-81.3790461
aF28.5421175
asS'Seattle WA'
p2173
(lp2174
F-122.3300623
aF47.6038321
asS'Washington County AL'
p2175
(lp2176
F-87.6647511
aF34.7570331
asS'Southfield MI'
p2177
(lp2178
F-83.221873
aF42.4733689
asS'Fort Walton Beach FL'
p2179
(lp2180
F-86.6188419
aF30.4057552
asS'Hamilton NJ'
p2181
(lp2182
F-74.6201577
aF40.506215
asS'Port Barre LA'
p2183
(lp2184
F-91.9540054
aF30.5601953
asS'Seaside CA'
p2185
(lp2186
F-121.817035788794
aF36.6258085
asS'Oxford AL'
p2187
(lp2188
F-85.833939
aF33.6149211
asS'Escondido CA'
p2189
(lp2190
F-117.0814848
aF33.1216751
asS'Surprise AZ'
p2191
(lp2192
F-112.3680188
aF33.6292271
asS'Beech Grove IN'
p2193
(lp2194
F-86.0894157
aF39.7221906
asS'Montcalm WV'
p2195
(lp2196
F-81.2525993
aF37.3540054
asS'Atlantic City NJ'
p2197
(lp2198
F-74.422935
aF39.3642852
asS'Lampe MO'
p2199
(lp2200
F-93.4379639
aF36.5636755
asS'Boulder CO'
p2201
(lp2202
F-105.2705455
aF40.0149856
asS'Baytown TX'
p2203
(lp2204
F-94.9774273
aF29.7355047
asS'Granite Falls NC'
p2205
(lp2206
F-81.4306457
aF35.7965205
asS'Newport News VA'
p2207
(lp2208
F-76.4505195
aF37.016827
asS'Lodi CA'
p2209
(lp2210
F-121.389845833665
aF38.0922395
asS'Lancaster CA'
p2211
(lp2212
F-118.1366152
aF34.6981064
asS'Landover MD'
p2213
(lp2214
F-76.8966396
aF38.9340002
asS'Sumter SC'
p2215
(lp2216
F-80.3414692
aF33.9204354
asS'Weston WI'
p2217
(lp2218
F-89.5476203
aF44.8908021
asS'Chico CA'
p2219
(lp2220
F-121.8374776
aF39.7284945
asS'Greensboro NC'
p2221
(lp2222
F-79.7919753
aF36.0726355
asS'Rapid City SD'
p2223
(lp2224
F-103.2280059
aF44.0811755
asS'Brookville OH'
p2225
(lp2226
F-84.4113365
aF39.8367207
asS'Rufe OK'
p2227
(lp2228
F-95.1441196
aF34.1237158
asS'Allentown PA'
p2229
(lp2230
F-75.4712793
aF40.6022059
asS'Manistee MI'
p2231
(lp2232
F-86.3242529
aF44.244447
asS'Middleton ID'
p2233
(lp2234
F-116.6201356
aF43.7068282
asS'Bay Minette AL'
p2235
(lp2236
F-87.7730473
aF30.8829628
asS'Winooski VT'
p2237
(lp2238
F-73.1830219
aF44.495036
asS'Russellville KY'
p2239
(lp2240
F-86.8872189
aF36.8453199
asS'Spring Lake NC'
p2241
(lp2242
F-78.9728059
aF35.16794
asS'Vincennes IN'
p2243
(lp2244
F-87.5286324
aF38.6772691
asS'Clendenin WV'
p2245
(lp2246
F-81.3481744
aF38.4887089
asS'Springfield IL'
p2247
(lp2248
F-89.6443687
aF39.7989763
asS'Lake Stevens WA'
p2249
(lp2250
F-122.0660913
aF48.0197794
asS'Omaha NE'
p2251
(lp2252
F-95.9378731
aF41.2587317
asS'Jesup GA'
p2253
(lp2254
F-81.8853923
aF31.6074365
asS'Solvang CA'
p2255
(lp2256
F-120.1390893
aF34.5958572
asS'West Covina CA'
p2257
(lp2258
F-117.9389525
aF34.0686208
asS'Campbellton TX'
p2259
(lp2260
F-98.3025107
aF28.747482
asS'Paterson NJ'
p2261
(lp2262
F-74.1718109
aF40.9167654
asS'Wilmore KY'
p2263
(lp2264
F-84.6602247
aF37.8640745
asS'New York NY'
p2265
(lp2266
F-75.291082422698
aF43.1024425
asS'La Mirada CA'
p2267
(lp2268
F-118.0107091
aF33.9060971
asS'Indio CA'
p2269
(lp2270
F-116.2188053
aF33.7192808
asS'Roosevelt UT'
p2271
(lp2272
F-109.9887604
aF40.299403
asS'Big Lake AK'
p2273
(lp2274
F-149.8666666
aF61.55
asS'Micanopy FL'
p2275
(lp2276
F-82.2795899
aF29.5045307
asS'Olympic Valley CA'
p2277
(lp2278
F-120.1576974
aF39.3357399
asS'Nitro WV'
p2279
(lp2280
F-81.8440196
aF38.4148146
asS'Burbank CA'
p2281
(lp2282
F-118.3258553
aF34.1816482
asS'Coney Island NY'
p2283
(lp2284
F-73.9851449
aF40.575789
asS'Midwest City OK'
p2285
(lp2286
F-97.3967024
aF35.4495097
asS'Winnsboro LA'
p2287
(lp2288
F-81.0864775
aF34.3807012
asS'Encinitas CA'
p2289
(lp2290
F-117.2919817
aF33.0369867
asS'Del Rio TX'
p2291
(lp2292
F-100.8967609
aF29.3627296
asS'Hutchinson KS'
p2293
(lp2294
F-97.9297742
aF38.0608444
asS'Sedalia MO'
p2295
(lp2296
F-93.2282612
aF38.7044609
asS'Prescott AZ'
p2297
(lp2298
F-112.4695072
aF34.5402813
asS'Valinda CA'
p2299
(lp2300
F-117.9436748
aF34.0452883
asS'Harker Heights TX'
p2301
(lp2302
F-97.6597376
aF31.0835102
asS'Brooklet GA'
p2303
(lp2304
F-81.6631658
aF32.3796294
asS'Lawndale NC'
p2305
(lp2306
F-81.5631473
aF35.4140187
asS'Mankato MN'
p2307
(lp2308
F-93.9993504
aF44.1634663
asS'Casper WY'
p2309
(lp2310
F-106.3130809
aF42.866632
asS'Cocoa FL'
p2311
(lp2312
F-80.7757979975217
aF28.3821505
asS'Delhi CA'
p2313
(lp2314
F-120.7785353
aF37.4321589
asS'Hometown WV'
p2315
(lp2316
F-81.8612443
aF38.5328674
asS'Barbourville KY'
p2317
(lp2318
F-83.8888137
aF36.8664765
asS'Palestine TX'
p2319
(lp2320
F-95.630789
aF31.7621153
asS'Bradenton FL'
p2321
(lp2322
F-82.5748193
aF27.4989278
asS'Johnsonville SC'
p2323
(lp2324
F-79.4492227
aF33.8179432
asS'Eureka CA'
p2325
(lp2326
F-124.1636728
aF40.8020712
asS'Fayetteville AR'
p2327
(lp2328
F-94.1574327
aF36.0625843
asS'West Memphis AR'
p2329
(lp2330
F-90.1845387
aF35.1464797
asS'Westminster CO'
p2331
(lp2332
F-105.0372045
aF39.8366528
asS'Vineland NJ'
p2333
(lp2334
F-75.0020264495217
aF39.473152
asS'Columbus OH'
p2335
(lp2336
F-83.0007064
aF39.9622601
asS'Opa-Locka FL'
p2337
(lp2338
F-80.2594963085029
aF25.89673385
asS'Augusta GA'
p2339
(lp2340
F-81.9748428
aF33.4709714
asS'Markham IL'
p2341
(lp2342
F-79.3242548
aF43.8539172
asS'Orange Park FL'
p2343
(lp2344
F-81.7064839
aF30.1660736
asS'Follansbee WV'
p2345
(lp2346
F-80.5959064
aF40.3275693
asS'Sioux Falls SD'
p2347
(lp2348
F-96.7003269
aF43.5499749
asS'Sparta TN'
p2349
(lp2350
F-85.4641341
aF35.9258921
asS'Elkins WV'
p2351
(lp2352
F-79.8466551
aF38.925927
asS'Healdton OK'
p2353
(lp2354
F-97.4878022
aF34.2331475
asS'San Ysidro CA'
p2355
(lp2356
F-117.0430812
aF32.5520013
asS'Burien WA'
p2357
(lp2358
F-122.3485273
aF47.469918
asS'Carson CA'
p2359
(lp2360
F-118.2517546
aF33.8322043
asS'Dover AR'
p2361
(lp2362
F-93.1143406
aF35.4014712
asS'Bluefield WV'
p2363
(lp2364
F-81.2223194
aF37.2698395
asS'Meadow Bridge WV'
p2365
(lp2366
F-80.8542567
aF37.8590061
asS'Parma OH'
p2367
(lp2368
F-81.7355691
aF41.3822398
asS'English IN'
p2369
(lp2370
F-86.4641497
aF38.3345045
asS'Milton FL'
p2371
(lp2372
F-87.039688
aF30.6324149
asS'Berne NY'
p2373
(lp2374
F-74.1334646
aF42.6253546
asS'Hessel MI'
p2375
(lp2376
F-84.4258689
aF46.0041827
asS'Cohasset MN'
p2377
(lp2378
F-93.6202149
aF47.263556
asS'Fridley MN'
p2379
(lp2380
F-93.2590387
aF45.0838291
asS'Grundy VA'
p2381
(lp2382
F-82.0990222
aF37.2778886
asS'Tuscumbia AL'
p2383
(lp2384
F-87.7025299
aF34.7312005
asS'Cheyenne WY'
p2385
(lp2386
F-104.8202461
aF41.1399814
asS'Franklin County MO'
p2387
(lp2388
F-98.9525809
aF40.096124
asS'Truth or Consequences NM'
p2389
(lp2390
F-107.2529058
aF33.1283485
asS'Roanoke VA'
p2391
(lp2392
F-79.9414312
aF37.270973
asS'Sunset TX'
p2393
(lp2394
F-99.7131437
aF33.4475958
asS'Hamilton OH'
p2395
(lp2396
F-84.5613427
aF39.3995067
asS'Smyrna GA'
p2397
(lp2398
F-83.4048861
aF33.5981814
asS'Iuka MS'
p2399
(lp2400
F-88.1900414
aF34.8117565
asS'Zanesville OH'
p2401
(lp2402
F-82.0131923
aF39.9403453
asS'Windsor CA'
p2403
(lp2404
F-64.1363748
aF44.9905115
asS'Sylmar CA'
p2405
(lp2406
F-118.4492147
aF34.3076252
asS'Cottonwood AZ'
p2407
(lp2408
F-112.009879
aF34.7391876
asS'Dinosaur CO'
p2409
(lp2410
F-109.0145612
aF40.243578
asS'San Bernardino CA'
p2411
(lp2412
F-117.2897651
aF34.1083449
asS'Union Township PA'
p2413
(lp2414
F-77.9115381376536
aF40.942146
asS'Newman CA'
p2415
(lp2416
F-121.0204221
aF37.3139487
asS'Old Bridge NJ'
p2417
(lp2418
F-74.30421
aF40.414071
asS'Louisville NE'
p2419
(lp2420
F-96.1622351
aF40.9977765
asS'Kenosha WI'
p2421
(lp2422
F-87.8212262
aF42.5846773
asS'Cantonment FL'
p2423
(lp2424
F-87.3399759
aF30.6085265
asS'Abingdon MD'
p2425
(lp2426
F-76.2791235
aF39.4623305
asS'Hudson OH'
p2427
(lp2428
F-81.4406669
aF41.240056
asS'Cincinnati OH'
p2429
(lp2430
F-84.5124601
aF39.1014537
asS'Tampa FL'
p2431
(lp2432
F-82.4584439
aF27.9477595
asS'Covington LA'
p2433
(lp2434
F-84.5083709
aF39.0836224
asS'Park County CO'
p2435
(lp2436
F-84.6422294
aF43.480586
asS'Colton OR'
p2437
(lp2438
F-122.437863
aF45.1720669
asS'New Orleans LA'
p2439
(lp2440
F-90.0701155
aF29.9499323
asS'Bridgeton NJ'
p2441
(lp2442
F-75.2340767
aF39.427337
asS'Highgrove CA'
p2443
(lp2444
F-117.3333771
aF34.0158479
asS'Taunton MA'
p2445
(lp2446
F-71.0897674
aF41.900101
asS'Sacramento CA'
p2447
(lp2448
F-121.4943995
aF38.5815719
asS'Lorena TX'
p2449
(lp2450
F-97.2155595
aF31.3865592
asS'Millbrook AL'
p2451
(lp2452
F-86.3619162
aF32.4798575
asS'Yuma AZ'
p2453
(lp2454
F-114.476031472498
aF32.665135
asS'Studio City CA'
p2455
(lp2456
F-118.3961876
aF34.1483989
asS'Homewood AL'
p2457
(lp2458
F-86.8008227
aF33.4717732
asS'Corning CA'
p2459
(lp2460
F-122.1791555
aF39.9276572
asS'Iva SC'
p2461
(lp2462
F-82.6637429
aF34.3064967
asS'Odessa TX'
p2463
(lp2464
F-102.3676869
aF31.8457149
asS'Fayetteville NC'
p2465
(lp2466
F-78.8787057
aF35.0529931
asS'Vineland MN'
p2467
(lp2468
F-93.7574723
aF46.1635704
asS'Falls Church VA'
p2469
(lp2470
F-77.1710909
aF38.882334
asS'Gladewater TX'
p2471
(lp2472
F-94.9427168
aF32.5365333
asS'Cleveland OH'
p2473
(lp2474
F-81.6934445
aF41.5051613
asS'El Monte CA'
p2475
(lp2476
F-118.0368489
aF34.0751571
asS'Pembine WI'
p2477
(lp2478
F-87.9909529
aF45.635239
asS'Hiseville KY'
p2479
(lp2480
F-85.8124722
aF37.1008864
asS'Ceres CA'
p2481
(lp2482
F-120.9577097
aF37.5949316
asS'Henderson NV'
p2483
(lp2484
F-114.9819234
aF36.0391456
asS'Everett MA'
p2485
(lp2486
F-71.0536624
aF42.40843
asS'Macon GA'
p2487
(lp2488
F-83.6324021
aF32.8406946
asS'East Point GA'
p2489
(lp2490
F-84.4864894515675
aF33.6654335
asS'Pomona CA'
p2491
(lp2492
F-117.7517495
aF34.0553813
asS'Rapid Valley SD'
p2493
(lp2494
F-103.121159928085
aF44.06957795
asS'South Greensburg PA'
p2495
(lp2496
F-79.5447618
aF40.2784029
asS'Rochester NY'
p2497
(lp2498
F-77.6152139
aF43.157285
asS'Kenner LA'
p2499
(lp2500
F-90.2417805
aF29.9942265
asS'Latta SC'
p2501
(lp2502
F-79.4321948
aF34.337691
asS'Mount Vernon NY'
p2503
(lp2504
F-73.8370785
aF40.9125992
asS'Yorba Linda CA'
p2505
(lp2506
F-117.8255938
aF33.890107
asS'Clermont FL'
p2507
(lp2508
F-81.7521985811927
aF28.5395705
asS'Knox IN'
p2509
(lp2510
F-86.6250138
aF41.2958751
asS'Kerrville TX'
p2511
(lp2512
F-99.1403188
aF30.0474332
asS'Memphis TN'
p2513
(lp2514
F-90.0516284
aF35.1490215
asS'Claremont NH'
p2515
(lp2516
F-72.3470309
aF43.377105
asS'Lewisburg TN'
p2517
(lp2518
F-86.7888886
aF35.4492404
asS'Antelope CA'
p2519
(lp2520
F-121.3299512
aF38.7082357
asS'Rocklin CA'
p2521
(lp2522
F-121.2357827
aF38.7907339
asS'Augusta WV'
p2523
(lp2524
F-78.6377911
aF39.2953787
asS'Hurst IL'
p2525
(lp2526
F-89.1428572
aF37.8331059
asS'Assaria KS'
p2527
(lp2528
F-97.6044805
aF38.6802826
asS'Largo FL'
p2529
(lp2530
F-82.7873243
aF27.9094665
asS'Boulder City NV'
p2531
(lp2532
F-114.832485
aF35.9785912
asS'Huntington Beach CA'
p2533
(lp2534
F-118.0000165
aF33.6783336
asS'Stillwater OK'
p2535
(lp2536
F-97.0585716
aF36.1156306
asS'Aurora CO'
p2537
(lp2538
F-104.8319195
aF39.729432
asS'Smyrna DE'
p2539
(lp2540
F-75.6046493
aF39.2998339
asS'Edinburg NY'
p2541
(lp2542
F-74.104019
aF43.2217388
asS'Pompano Beach FL'
p2543
(lp2544
F-80.1247666
aF26.2378597
asS'Vadnais Heights MN'
p2545
(lp2546
F-93.0738305
aF45.0574659
asS'Inyokern CA'
p2547
(lp2548
F-117.8125673
aF35.6468991
asS'Cathedral City CA'
p2549
(lp2550
F-116.4640764
aF33.7810031
asS'Queens NY'
p2551
(lp2552
F-73.7976336
aF40.7498243
asS'Big Springs NE'
p2553
(lp2554
F-102.0743489
aF41.061381
asS'Las Vegas NV'
p2555
(lp2556
F-115.1492249
aF36.1662859
asS'Albany GA'
p2557
(lp2558
F-84.1556808
aF31.5782062
asS'Anchorage KY'
p2559
(lp2560
F-85.5330113
aF38.2665993
asS'Clarkesville GA'
p2561
(lp2562
F-83.5248932
aF34.6125971
asS'Rush Springs OK'
p2563
(lp2564
F-97.9569844
aF34.7825721
asS'Myra TX'
p2565
(lp2566
F-97.3144624
aF33.6239966
asS'Green OH'
p2567
(lp2568
F-81.467063
aF40.9468077
asS'Homedale ID'
p2569
(lp2570
F-116.9337598
aF43.6176584
asS'Silver Springs NV'
p2571
(lp2572
F-119.2246075
aF39.4154735
asS'Burlington VT'
p2573
(lp2574
F-73.211494
aF44.4723989
asS'East Hollywood CA'
p2575
(lp2576
F-118.3299898
aF34.1028268
asS'Springtown TX'
p2577
(lp2578
F-98.1897588
aF31.802096
asS'Oxford MA'
p2579
(lp2580
F-71.864794
aF42.1167621
asS'Westover AL'
p2581
(lp2582
F-86.5351056461783
aF33.357595
asS'Mandeville LA'
p2583
(lp2584
F-2.4865048
aF50.5977753
asS'Jourdanton TX'
p2585
(lp2586
F-98.5464068
aF28.9180294
asS'Citrus Heights CA'
p2587
(lp2588
F-121.281061
aF38.7071247
asS'Seaside OR'
p2589
(lp2590
F-123.9202129
aF45.993246
asS'Mt. Auburn OH'
p2591
(lp2592
F-84.5033412
aF39.1186028
asS'Pharr TX'
p2593
(lp2594
F-98.1836215
aF26.1947962
asS'Canaan Township PA'
p2595
(lp2596
F-75.3975269484708
aF41.5664183
asS'Santa Barbara CA'
p2597
(lp2598
F-119.7026672
aF34.4221319
asS'Chalmette LA'
p2599
(lp2600
F-89.9629371
aF29.9427892
asS'Madison WI'
p2601
(lp2602
F-89.3837612
aF43.074761
asS'Pride LA'
p2603
(lp2604
F-102.0776685
aF32.9373171
asS'Irving TX'
p2605
(lp2606
F-96.9442176
aF32.8295183
asS'Miami Gardens FL'
p2607
(lp2608
F-80.2397527099553
aF25.94207545
asS'Nocona TX'
p2609
(lp2610
F-97.7258625
aF33.7867684
asS'Brooksville FL'
p2611
(lp2612
F-82.3878708
aF28.5552719
asS'Pinellas Park FL'
p2613
(lp2614
F-82.7043782401824
aF27.8599115
asS'Jackson WI'
p2615
(lp2616
F-88.1667598
aF43.3238919
asS'Thonotosassa FL'
p2617
(lp2618
F-82.3023127
aF28.0614065
asS'Chatsworth CA'
p2619
(lp2620
F-118.6023246
aF34.2595715
asS'Bell CA'
p2621
(lp2622
F-118.1870155
aF33.9775142
asS'Long Beach CA'
p2623
(lp2624
F-118.158049215311
aF33.78538945
asS'Pendleton SC'
p2625
(lp2626
F-82.7820662
aF34.6508092
asS'Dadeville AL'
p2627
(lp2628
F-85.7635691
aF32.831238
asS'Vassalboro ME'
p2629
(lp2630
F-69.6778991
aF44.4595251
asS'Winnie TX'
p2631
(lp2632
F-94.3840776
aF29.8202205
asS'Watts OK'
p2633
(lp2634
F-94.5702201
aF36.1092487
asS'Bloomsburg PA'
p2635
(lp2636
F-76.4538159
aF41.0041213
asS'Merrimack NH'
p2637
(lp2638
F-71.4934003
aF42.8650864
asS'Harrisonburg VA'
p2639
(lp2640
F-78.8688832
aF38.4493315
asS'Council ID'
p2641
(lp2642
F-116.4381984
aF44.7298876
asS'Mabank TX'
p2643
(lp2644
F-96.1008055
aF32.3665322
asS'Suffolk VA'
p2645
(lp2646
F-76.5835702
aF36.7282096
asS'Houma LA'
p2647
(lp2648
F-90.7195347
aF29.5957696
asS'Fuqua TX'
p2649
(lp2650
F-94.7363151
aF30.4471514
asS'Van Nuys CA'
p2651
(lp2652
F-118.4487289
aF34.1866581
asS'Knoxville PA'
p2653
(lp2654
F-79.9930023791991
aF40.412969
asS'King City OR'
p2655
(lp2656
F-122.8041091
aF45.4028329
asS'Medford OR'
p2657
(lp2658
F-122.8718604
aF42.3264181
asS'Overlea MD'
p2659
(lp2660
F-76.528015
aF39.3570551
asS'Turlock CA'
p2661
(lp2662
F-120.846594
aF37.4946568
asS'Yakima WA'
p2663
(lp2664
F-120.510842
aF46.601557
asS'Riverdale GA'
p2665
(lp2666
F-84.4132593
aF33.5726113
asS'Florissant MO'
p2667
(lp2668
F-90.3226139
aF38.789217
asS'Powder Springs GA'
p2669
(lp2670
F-84.6838239
aF33.8595492
asS'Fairfax OK'
p2671
(lp2672
F-96.7041987
aF36.5736587
asS'Beckley WV'
p2673
(lp2674
F-81.1881556
aF37.7781702
asS'New Hope MN'
p2675
(lp2676
F-93.3866184
aF45.0380201
asS'Palmdale CA'
p2677
(lp2678
F-118.1171107
aF34.5793131
asS'Somerset PA'
p2679
(lp2680
F-79.078083
aF40.008411
asS'Bailey CO'
p2681
(lp2682
F-105.4717012
aF39.4064662
asS'Essex MD'
p2683
(lp2684
F-76.4790354
aF39.3075071
asS'Santa Clarita CA'
p2685
(lp2686
F-118.5425859
aF34.3916641
asS'Loxahatchee FL'
p2687
(lp2688
F-80.2797699
aF26.6836769
asS'Rantoul IL'
p2689
(lp2690
F-88.1558784
aF40.3083672
asS'Bull Shoals AR'
p2691
(lp2692
F-92.5815526
aF36.383956
asS'Fredericksburg VA'
p2693
(lp2694
F-77.4605398
aF38.3031837
asS'Columbus MS'
p2695
(lp2696
F-88.4272626
aF33.4956744
asS'Forks Township PA'
p2697
(lp2698
F-75.8474144
aF41.9181323
asS'San Jose CA'
p2699
(lp2700
F-121.8905832
aF37.3361905
asS'Affton MO'
p2701
(lp2702
F-90.3331718
aF38.5506084
asS'Stockton IL'
p2703
(lp2704
F-121.2907795
aF37.9577016
asS'Beacon NY'
p2705
(lp2706
F-73.9696819
aF41.504879
asS'St. Joseph MO'
p2707
(lp2708
F-94.8466321
aF39.7686055
asS'St. Joseph MI'
p2709
(lp2710
F-94.8466321
aF39.7686055
asS'Aiea HI'
p2711
(lp2712
F-157.933611
aF21.3822222
asS'Atlanta GA'
p2713
(lp2714
F-84.3901848
aF33.7490987
asS'Butte MT'
p2715
(lp2716
F-112.5365088
aF46.0131505
asS'Fort Littleton PA'
p2717
(lp2718
F-77.9636116
aF40.0628635
asS'St. Paul MN'
p2719
(lp2720
F-93.1015025
aF44.9504037
asS'DeLand FL'
p2721
(lp2722
F-81.2941416253978
aF29.0195145
asS'Panorama City CA'
p2723
(lp2724
F-118.4453744
aF34.2242902
asS'Elizabethton TN'
p2725
(lp2726
F-82.2106875
aF36.3487196
asS'Vista CA'
p2727
(lp2728
F-117.2425354
aF33.2000368
asS'Madison Township OH'
p2729
(lp2730
F-82.3138350936161
aF40.064451
asS'Spring TX'
p2731
(lp2732
F-95.4172548
aF30.0798826
asS'Lenoir NC'
p2733
(lp2734
F-81.5389848
aF35.9140196
as.